
/home/letsgrillbananas/wsFreedomStudio/embedded-software/src/debug/empty.elf:     file format elf32-littleriscv
/home/letsgrillbananas/wsFreedomStudio/embedded-software/src/debug/empty.elf
architecture: riscv:rv32, flags 0x00000112:
EXEC_P, HAS_SYMS, D_PAGED
start address 0x20010000

Program Header:
    LOAD off    0x00001000 vaddr 0x20010000 paddr 0x20010000 align 2**12
         filesz 0x00000d88 memsz 0x00000d88 flags rwx
    LOAD off    0x00002000 vaddr 0x80000000 paddr 0x20013e48 align 2**12
         filesz 0x000004c4 memsz 0x000004c4 flags rw-
     TLS off    0x00000000 vaddr 0x00000000 paddr 0x00000000 align 2**2
         filesz 0x00000000 memsz 0x00000000 flags ---
    LOAD off    0x000024c8 vaddr 0x800004c8 paddr 0x800004c8 align 2**12
         filesz 0x00000000 memsz 0x00000c98 flags rw-
    LOAD off    0x000024c4 vaddr 0x00000000 paddr 0x00000000 align 2**12
         filesz 0x00000000 memsz 0x00000000 flags ---
    LOAD off    0x00002e00 vaddr 0x20010e00 paddr 0x20010e00 align 2**12
         filesz 0x00003042 memsz 0x00003042 flags r-x
    LOAD off    0x00005e42 vaddr 0x00000000 paddr 0x00000000 align 2**12
         filesz 0x00000000 memsz 0x00000000 flags ---

Sections:
Idx Name              Size      VMA       LMA       File off  Algn  Flags
  0 .init             000002e6  20010000  20010000  00001000  2**4  CONTENTS, ALLOC, LOAD, READONLY, CODE
  1 .init_array       00000008  200102e8  200102e8  000012e8  2**3  CONTENTS, ALLOC, LOAD, DATA
  2 .ctors            00000056  200102f0  200102f0  000012f0  2**1  CONTENTS, ALLOC, LOAD, READONLY, CODE
  3 .rodata           00000a40  20010348  20010348  00001348  2**2  CONTENTS, ALLOC, LOAD, READONLY, DATA
  4 .text             00003042  20010e00  20010e00  00002e00  2**7  CONTENTS, ALLOC, LOAD, READONLY, CODE
  5 .data             000004c4  80000000  20013e48  00002000  2**3  CONTENTS, ALLOC, LOAD, DATA
  6 .bss              00000098  800004c8  800004c8  000024c8  2**3  ALLOC
  7 .stack            00000400  80000560  80000560  000024c8  2**4  ALLOC
  8 .heap             00000800  80000960  80000960  000024c8  2**3  ALLOC
  9 .debug_info       00019d10  00000000  00000000  00005e42  2**0  CONTENTS, READONLY, DEBUGGING
 10 .debug_abbrev     00001b5d  00000000  00000000  0001fb52  2**0  CONTENTS, READONLY, DEBUGGING
 11 .debug_aranges    00000730  00000000  00000000  000216b0  2**3  CONTENTS, READONLY, DEBUGGING
 12 .debug_ranges     00000610  00000000  00000000  00021de0  2**3  CONTENTS, READONLY, DEBUGGING
 13 .debug_line       00006cb3  00000000  00000000  000223f0  2**0  CONTENTS, READONLY, DEBUGGING
 14 .debug_str        00003e1d  00000000  00000000  000290a3  2**0  CONTENTS, READONLY, DEBUGGING
 15 .comment          00000028  00000000  00000000  0002cec0  2**0  CONTENTS, READONLY
 16 .riscv.attributes 0000002b  00000000  00000000  0002cee8  2**0  CONTENTS, READONLY
 17 .debug_frame      00001e20  00000000  00000000  0002cf14  2**2  CONTENTS, READONLY, DEBUGGING
SYMBOL TABLE:
20010000 l    d  .init	00000000 .init
200102e8 l    d  .init_array	00000000 .init_array
200102f0 l    d  .ctors	00000000 .ctors
20010348 l    d  .rodata	00000000 .rodata
20010e00 l    d  .text	00000000 .text
80000000 l    d  .data	00000000 .data
800004c8 l    d  .bss	00000000 .bss
80000560 l    d  .stack	00000000 .stack
80000960 l    d  .heap	00000000 .heap
00000000 l    d  .debug_info	00000000 .debug_info
00000000 l    d  .debug_abbrev	00000000 .debug_abbrev
00000000 l    d  .debug_aranges	00000000 .debug_aranges
00000000 l    d  .debug_ranges	00000000 .debug_ranges
00000000 l    d  .debug_line	00000000 .debug_line
00000000 l    d  .debug_str	00000000 .debug_str
00000000 l    d  .comment	00000000 .comment
00000000 l    d  .riscv.attributes	00000000 .riscv.attributes
00000000 l    d  .debug_frame	00000000 .debug_frame
00000000 l    df *ABS*	00000000 scrub.o
200100ca l     F .init	00000000 __metal_memory_scrub
20010138 l       .init	00000000 skip_scrub
00000000 l    df *ABS*	00000000 synchronize_harts.c
00000000 l    df *ABS*	00000000 crt0.o
20010248 l       .init	00000000 _skip_init
20010348 l       .rodata	00000000 argv
2001034c l       .rodata	00000000 envp
20010350 l       .rodata	00000000 name
00000000 l    df *ABS*	00000000 sifive_fe310-g000_pll.c
2001342a l     F .text	0000001a __metal_driver_sifive_fe310_g000_pll_pllsel0
20013444 l     F .text	0000001a __metal_driver_sifive_fe310_g000_pll_pllref
2001345e l     F .text	00000016 __metal_driver_sifive_fe310_g000_pll_divider_base
20013474 l     F .text	00000014 __metal_driver_sifive_fe310_g000_pll_divider_offset
20013488 l     F .text	00000012 __metal_driver_sifive_fe310_g000_pll_config_base
2001349a l     F .text	00000010 __metal_driver_sifive_fe310_g000_pll_config_offset
200134aa l     F .text	00000016 __metal_driver_sifive_fe310_g000_pll_init_rate
200134c0 l     F .text	00000012 __metal_driver_sifive_fe310_g000_prci_base
200134d2 l     F .text	00000012 __metal_driver_sifive_fe310_g000_prci_vtable
200104fc l     O .rodata	00000880 pll_configs
200134e4 l     F .text	0000004e get_pll_config_freq
2001373e l     F .text	000000aa find_closest_config
200137e8 l     F .text	000001ac configure_pll
00000000 l    df *ABS*	00000000 riscv_clint0.c
20011150 l     F .text	0000002a __metal_driver_sifive_clint0_control_base
2001117a l     F .text	00000028 __metal_driver_sifive_clint0_num_interrupts
200111a2 l     F .text	0000003c __metal_driver_sifive_clint0_interrupt_parents
200111de l     F .text	00000030 __metal_driver_sifive_clint0_interrupt_lines
2001133e l     F .text	00000036 _get_cpu_intc
00000000 l    df *ABS*	00000000 riscv_cpu.c
20011870 l     F .text	00000024 __metal_driver_cpu_hartid
20011894 l     F .text	0000002a __metal_driver_cpu_timebase
200118be l     F .text	0000002a __metal_driver_cpu_interrupt_controller
200118e8 l     F .text	00000024 __metal_driver_cpu_buserror
00000000 l    df *ABS*	00000000 main.c
00000000 l    df *ABS*	00000000 atexit.c
00000000 l    df *ABS*	00000000 exit.c
00000000 l    df *ABS*	00000000 fini.c
00000000 l    df *ABS*	00000000 init.c
00000000 l    df *ABS*	00000000 __atexit.c
800004d4 l     O .bss	0000008c _global_atexit0
00000000 l    df *ABS*	00000000 __call_atexit.c
00000000 l    df *ABS*	00000000 init.c
800004cc l     O .bss	00000004 init_done.1531
800004d0 l     O .bss	00000004 fini_done.1540
00000000 l    df *ABS*	00000000 sifive_fe310-g000_hfrosc.c
20013242 l     F .text	0000001a __metal_driver_sifive_fe310_g000_hfrosc_ref
2001325c l     F .text	00000016 __metal_driver_sifive_fe310_g000_hfrosc_config_base
20013272 l     F .text	00000014 __metal_driver_sifive_fe310_g000_hfrosc_config_offset
20013286 l     F .text	00000012 __metal_driver_sifive_fe310_g000_prci_vtable
00000000 l    df *ABS*	00000000 sifive_fe310-g000_hfxosc.c
2001333e l     F .text	0000001a __metal_driver_sifive_fe310_g000_hfxosc_ref
20013358 l     F .text	00000016 __metal_driver_sifive_fe310_g000_hfxosc_config_base
2001336e l     F .text	00000014 __metal_driver_sifive_fe310_g000_hfxosc_config_offset
20013382 l     F .text	00000012 __metal_driver_sifive_fe310_g000_prci_vtable
00000000 l    df *ABS*	00000000 sifive_fe310-g000_prci.c
20013aee l     F .text	00000012 __metal_driver_sifive_fe310_g000_prci_base
00000000 l    df *ABS*	00000000 clock.c
00000000 l    df *ABS*	00000000 cpu.c
00000000 l    df *ABS*	00000000 shutdown.c
00000000 l    df *ABS*	00000000 vector.o
20013d00 l       .text	00000000 IRQ_0
20013d04 l       .text	00000000 IRQ_1
20013d08 l       .text	00000000 IRQ_2
20013d0c l       .text	00000000 IRQ_3
20013d10 l       .text	00000000 IRQ_4
20013d14 l       .text	00000000 IRQ_5
20013d18 l       .text	00000000 IRQ_6
20013d1c l       .text	00000000 IRQ_7
20013d20 l       .text	00000000 IRQ_8
20013d24 l       .text	00000000 IRQ_9
20013d28 l       .text	00000000 IRQ_10
20013d2c l       .text	00000000 IRQ_11
20013d30 l       .text	00000000 IRQ_12
20013d34 l       .text	00000000 IRQ_13
20013d38 l       .text	00000000 IRQ_14
20013d3c l       .text	00000000 IRQ_15
20013d40 l       .text	00000000 IRQ_LC0
20013d44 l       .text	00000000 IRQ_LC1
20013d48 l       .text	00000000 IRQ_LC2
20013d4c l       .text	00000000 IRQ_LC3
20013d50 l       .text	00000000 IRQ_LC4
20013d54 l       .text	00000000 IRQ_LC5
20013d58 l       .text	00000000 IRQ_LC6
20013d5c l       .text	00000000 IRQ_LC7
20013d60 l       .text	00000000 IRQ_LC8
20013d64 l       .text	00000000 IRQ_LC9
20013d68 l       .text	00000000 IRQ_LC10
20013d6c l       .text	00000000 IRQ_LC11
20013d70 l       .text	00000000 IRQ_LC12
20013d74 l       .text	00000000 IRQ_LC13
20013d78 l       .text	00000000 IRQ_LC14
20013d7c l       .text	00000000 IRQ_LC15
00000000 l    df *ABS*	00000000 fixed-clock.c
20013d80 l     F .text	00000070 __metal_driver_fixed_clock_rate
00000000 l    df *ABS*	00000000 sys_exit.c
00000000 l    df *ABS*	00000000 impure.c
80000000 l     O .data	00000060 impure_data
00000000 l    df *ABS*	00000000 inline.c
00000000 l    df *ABS*	00000000 
200102f0 l       .init_array	00000000 metal_constructors_end
200102f0 l       .init_array	00000000 __fini_array_end
200102f0 l       .init_array	00000000 metal_destructors_end
200102f0 l       .init_array	00000000 metal_destructors_start
200102f0 l       .init_array	00000000 __fini_array_start
200102e8 l       .init_array	00000000 __init_array_end
200102e8 l       .init_array	00000000 __preinit_array_end
200102e8 l       .init_array	00000000 __init_array_start
200102e8 l       .init_array	00000000 metal_constructors_start
200102e8 l       .init_array	00000000 __preinit_array_start
2001214c  w    F .text	00000096 metal_lc4_interrupt_vector_handler
20013ba6 g     F .text	00000026 metal_clock_get_rate_hz
2001151a g     F .text	00000058 __metal_driver_riscv_clint0_set_vector_mode
200120b6  w    F .text	00000096 metal_lc3_interrupt_vector_handler
2001293c g     F .text	00000064 __metal_valid_interrupt_id
200102ec g     O .init_array	00000004 _use_hfxosc_ptr
20012db6 g     F .text	0000001a __metal_driver_riscv_cpu_controller_get_vector_mode
80000c88 g       .data	00000000 __global_pointer$
20012b8c g     F .text	000001d6 __metal_driver_riscv_cpu_controller_interrupt_register
200102e8 g     O .init_array	00000004 _metal_sifive_fe310_g000_pll_init_ptr
800004c8 g       .data	00000000 __tls_base
20013c3a g     F .text	0000002e metal_cpu_get
2001035c g     O .rodata	00000064 __metal_driver_vtable_riscv_clint0
80000560 g       .bss	00000000 metal_segment_bss_target_end
2001120e g     F .text	0000009a __metal_clint0_mtime_get
200131b6 g     F .text	0000002e __metal_driver_cpu_get_instruction_length
00000001 g       *ABS*	00000000 __metal_chicken_bit
08000000 g       .rodata	00000000 metal_segment_itim_target_start
2001014a g     F .init	0000000e __metal_synchronize_harts
800004c8 g       .data	00000000 metal_segment_bss_target_start
200112a8 g     F .text	00000096 __metal_driver_riscv_clint0_mtimecmp_set
200135d2 g     F .text	0000016c __metal_driver_sifive_fe310_g000_pll_get_rate_hz
00000400 g       *ABS*	00000000 __stack_size
2001243a  w    F .text	00000096 metal_lc9_interrupt_vector_handler
200100d6  w    F .init	00000000 __metal_before_start
20011128  w    F .text	00000014 metal_init_run
200104b8 g     O .rodata	00000044 __metal_driver_vtable_cpu
00000000 g       *ABS*	00000000 __metal_eccscrub_bit
20012e3c g     F .text	00000072 __metal_driver_cpu_mcycle_get
20010d7c g     O .rodata	0000000c __metal_driver_vtable_sifive_fe310_g000_pll
80000498 g     O .data	00000008 __metal_dt_cpu_0
200123a4  w    F .text	00000096 metal_lc8_interrupt_vector_handler
20013994 g     F .text	0000015a __metal_driver_sifive_fe310_g000_pll_set_rate_hz
20012692  w    F .text	00000096 metal_lc13_interrupt_vector_handler
20011a7a g     F .text	00000018 __metal_default_exception_handler
2001183c g     F .text	00000034 __metal_driver_riscv_clint0_set_interrupt
20012dd0 g     F .text	00000050 __metal_driver_riscv_cpu_controller_set_vector_mode
2001190c g     F .text	00000030 __metal_driver_cpu_get
20010454 g     O .rodata	00000064 __metal_driver_vtable_riscv_cpu_intc
2001196e g     F .text	00000018 __metal_interrupt_global_disable
2001230e  w    F .text	00000096 metal_lc7_interrupt_vector_handler
200124d0  w    F .text	00000096 metal_lc10_interrupt_vector_handler
20012a5c g     F .text	0000004e __metal_exception_register
20011038 g     F .text	00000078 metal_init
20012fd0 g     F .text	0000001a __metal_driver_cpu_timer_controller_interrupt
80000000 g       .rodata	00000000 metal_segment_lim_target_end
20011b6a g     F .text	00000068 __metal_default_sw_handler
8000006c g     O .data	0000000c __metal_dt_clock_2
800004bc g     O .data	00000008 __metal_driver_vtable_fixed_clock
80000488 g     O .data	00000004 _global_impure_ptr
20011bd2  w    F .text	00000092 metal_timer_interrupt_vector_handler
20010e7e g     F .text	0000006a __libc_init_array
20012566  w    F .text	00000096 metal_lc11_interrupt_vector_handler
20013408 g     F .text	00000022 __metal_driver_sifive_fe310_g000_hfxosc_set_rate_hz
20012d62 g     F .text	0000002a __metal_driver_riscv_cpu_controller_interrupt_enable
20013b66 g     F .text	00000040 _metal_clock_call_all_callbacks
200102c4 g     F .init	00000002 _init
200119d0 g     F .text	0000001a __metal_interrupt_timer_disable
2001308e g     F .text	00000062 __metal_driver_cpu_clear_sw_ipi
20010e46 g     F .text	00000038 __libc_fini_array
80000478 g     O .data	0000000c __metal_dt_clock_4
200110b0 g     F .text	00000078 metal_fini
20013018 g     F .text	00000014 __metal_driver_cpu_get_sw_interrupt_id
20013222 g     F .text	00000020 __metal_driver_cpu_get_buserror
80000000 g       .data	00000000 metal_segment_data_target_start
20011a22 g     F .text	0000002c __metal_interrupt_local_enable
20011808 g     F .text	00000034 __metal_driver_riscv_clint0_clear_interrupt
00000000 g       *ABS*	00000000 __tbss_size
80000060 g     O .data	0000000c __metal_dt_clock_0
00000800 g       *ABS*	00000000 __heap_size
20011c64 g     F .text	00000016 __metal_default_beu_handler
20011a06 g     F .text	0000001c __metal_interrupt_external_disable
20012e20 g     F .text	0000001c __metal_driver_riscv_cpu_controller_command_request
20012aaa g     F .text	000000e2 __metal_driver_riscv_cpu_controller_interrupt_init
20013170 g     F .text	00000046 __metal_driver_cpu_exception_register
20011986 g     F .text	00000018 __metal_interrupt_software_enable
20011f8a  w    F .text	00000096 metal_lc1_interrupt_vector_handler
800004c8 g     O .bss	00000004 _global_atexit
20012854 g     F .text	00000050 __metal_controller_interrupt_vector_mode
20010f70 g     F .text	000000c8 __call_exitprocs
80000960 g       .stack	00000000 _sp
20010158 g     F .init	00000000 _start
20013298 g     F .text	00000084 __metal_driver_sifive_fe310_g000_hfrosc_get_rate_hz
20013150 g     F .text	00000020 __metal_driver_cpu_controller_interrupt
200131e4 g     F .text	0000001e __metal_driver_cpu_get_exception_pc
200119ea g     F .text	0000001c __metal_interrupt_external_enable
20010ee8 g     F .text	00000088 __register_exitproc
20012278  w    F .text	00000096 metal_lc6_interrupt_vector_handler
2001193c g     F .text	0000001a __metal_myhart_id
20011ad8  w    F .text	00000092 metal_software_interrupt_vector_handler
20012d8c g     F .text	0000002a __metal_driver_riscv_cpu_controller_interrupt_disable
200113fc g     F .text	000000da __metal_driver_riscv_clint0_register
80000490 g     O .data	00000008 __metal_dt_clint_2000000
20013bcc g     F .text	00000048 metal_clock_set_rate_hz
200102c6  w    F .init	00000000 secondary_main
20011aaa  w    F .text	0000002e metal_interrupt_vector_handler
20013b00 g     F .text	0000002e __metal_driver_sifive_fe310_g000_prci_get_reg
200129a0 g     F .text	000000bc __metal_local_interrupt_enable
200116d6 g     F .text	00000132 __metal_driver_riscv_clint0_command_request
200121e2  w    F .text	00000096 metal_lc5_interrupt_vector_handler
20010e00 g     F .text	00000010 main
800004c8 g       .data	00000000 metal_segment_data_target_end
800004a4 g     O .data	00000008 __metal_driver_vtable_sifive_fe310_g000_hfrosc
2001302c g     F .text	00000062 __metal_driver_cpu_set_sw_ipi
200130f0 g     F .text	00000060 __metal_driver_cpu_get_msip
20013c82 g     F .text	0000000e metal_shutdown
08000000 g       .rodata	00000000 metal_segment_itim_target_end
20013202 g     F .text	00000020 __metal_driver_cpu_set_exception_pc
200125fc  w    F .text	00000096 metal_lc12_interrupt_vector_handler
20010092 g     F .init	00000000 metal_mem_scrub
200114fe g     F .text	0000001c __metal_driver_riscv_clint0_get_vector_mode
800004a0 g     O .data	00000004 __metal_dt_prci_10008000
20012eae g     F .text	00000046 __metal_driver_cpu_timebase_get
20010000 g       .init	00000000 _enter
20013c68 g     F .text	0000001a metal_cpu_get_current_hartid
20013394 g     F .text	00000074 __metal_driver_sifive_fe310_g000_hfxosc_get_rate_hz
20013d00 g       .text	00000000 __metal_vector_table
20010d88 g       *ABS*	00000000 metal_segment_itim_source_start
8000048c  w    O .data	00000004 __metal_cpu_table
80000090 g     O .data	000003d0 __metal_dt_cpu_0_interrupt_controller
200102c4 g     F .init	00000002 _fini
80000000 g       .rodata	00000000 metal_segment_lim_target_start
2001031c g     F .ctors	0000002a use_hfxosc
20011956 g     F .text	00000018 __metal_interrupt_global_enable
20010e10 g     F .text	0000000a atexit
200119b6 g     F .text	0000001a __metal_interrupt_timer_enable
20011624 g     F .text	000000b2 __metal_driver_riscv_clint0_disable
20012f5a g     F .text	00000076 __metal_driver_cpu_mtimecmp_set
20013532 g     F .text	000000a0 __metal_driver_sifive_fe310_g000_pll_init
80000078 g     O .data	0000000c __metal_dt_clock_5
20013b2e g     F .text	00000038 __metal_driver_sifive_fe310_g000_prci_set_reg
20013df0 g     F .text	0000001e __metal_driver_fixed_clock_get_rate_hz
20011572 g     F .text	000000b2 __metal_driver_riscv_clint0_enable
20013e48 g       *ABS*	00000000 metal_segment_data_source_start
2001013c g       .init	00000000 early_trap_vector
200128a4 g     F .text	00000098 __metal_controller_interrupt_vector
8000046c g     O .data	0000000c __metal_dt_clock_1
20011c7a g     F .text	00000066 __metal_default_timer_handler
20012020  w    F .text	00000096 metal_lc2_interrupt_vector_handler
200127be  w    F .text	00000096 metal_lc15_interrupt_vector_handler
20013c14 g     F .text	00000026 metal_cpu_interrupt_controller
20010e1a g     F .text	0000002c exit
20013e0e g     F .text	00000022 __metal_driver_fixed_clock_set_rate_hz
20010d88 g       *ABS*	00000000 metal_segment_lim_source_start
20011a92 g     F .text	00000018 __metal_default_interrupt_handler
2001113c  w    F .text	00000014 metal_fini_run
20011d00 g     F .text	0000017c __metal_exception_handler
20011ef6  w    F .text	00000094 metal_lc0_interrupt_vector_handler
20013e30 g     F .text	00000012 _exit
20012ef4 g     F .text	00000066 __metal_driver_cpu_mtime_get
200114d6 g     F .text	00000028 __metal_driver_riscv_clint0_vector_register
20012728  w    F .text	00000096 metal_lc14_interrupt_vector_handler
800004ac g     O .data	00000008 __metal_driver_vtable_sifive_fe310_g000_hfxosc
20011374 g     F .text	00000088 __metal_driver_riscv_clint0_init
200102f0 g     F .ctors	0000002c metal_sifive_fe310_g000_pll_init
20012fea g     F .text	00000014 __metal_driver_cpu_get_timer_interrupt_id
20010090  w      .init	00000000 __register_frame_info
2001331c g     F .text	00000022 __metal_driver_sifive_fe310_g000_hfrosc_set_rate_hz
20012ffe g     F .text	0000001a __metal_driver_cpu_sw_controller_interrupt
20011a4e g     F .text	0000002c __metal_interrupt_local_disable
2001199e g     F .text	00000018 __metal_interrupt_software_disable
80000460 g     O .data	0000000c __metal_dt_clock_3
80000084 g     O .data	0000000c __metal_dt_clock_6
800004b4 g     O .data	00000008 __metal_driver_vtable_sifive_fe310_g000_prci
00000000 g       *ABS*	00000000 __metal_boot_hart



Disassembly of section .init:

20010000 <_enter>:
_enter():
/home/letsgrillbananas/wsFreedomStudio/embedded-software/freedom-metal/src/entry.S:24
     * it's not valid to obtain the address of any symbol without GP
     * configured.  The C environment might go ahead and do this again, but
     * that's safe as it's a fixed register. */
.option push
.option norelax
    la gp, __global_pointer$
20010000:	5fff1197          	auipc	gp,0x5fff1
20010004:	c8818193          	addi	gp,gp,-888 # 80000c88 <__global_pointer$>
/home/letsgrillbananas/wsFreedomStudio/embedded-software/freedom-metal/src/entry.S:28
.option pop

    /* trap over the chicken bit register clearing, aloe & fe310 dont have it */
    la t0, 1f
20010008:	00000297          	auipc	t0,0x0
2001000c:	01828293          	addi	t0,t0,24 # 20010020 <_enter+0x20>
/home/letsgrillbananas/wsFreedomStudio/embedded-software/freedom-metal/src/entry.S:29
    csrw mtvec, t0
20010010:	30529073          	csrw	mtvec,t0
/home/letsgrillbananas/wsFreedomStudio/embedded-software/freedom-metal/src/entry.S:31
    /* chicken bit is enable if core are sifive series. */
    la t0, __metal_chicken_bit
20010014:	00100293          	li	t0,1
/home/letsgrillbananas/wsFreedomStudio/embedded-software/freedom-metal/src/entry.S:32
    beqz t0, 1f
20010018:	00028463          	beqz	t0,20010020 <_enter+0x20>
/home/letsgrillbananas/wsFreedomStudio/embedded-software/freedom-metal/src/entry.S:34
    /* If set, always clear the feature disable register for all cores series */
    csrwi 0x7C1, 0
2001001c:	7c105073          	csrwi	0x7c1,0
/home/letsgrillbananas/wsFreedomStudio/embedded-software/freedom-metal/src/entry.S:39
.align 4
1:
    /* Set up a simple trap vector to catch anything that goes wrong early in
     * the boot process. */
    la t0, early_trap_vector
20010020:	00000297          	auipc	t0,0x0
20010024:	11c28293          	addi	t0,t0,284 # 2001013c <early_trap_vector>
/home/letsgrillbananas/wsFreedomStudio/embedded-software/freedom-metal/src/entry.S:40
    csrw mtvec, t0
20010028:	30529073          	csrw	mtvec,t0
/home/letsgrillbananas/wsFreedomStudio/embedded-software/freedom-metal/src/entry.S:48
     * C, so here we set up a C environment. First we set up a stack pointer,
     * which is left as a weak reference in order to allow initialization
     * routines that do not need a stack to be set up to transparently be
     * called. */
    .weak __metal_stack_pointer
    la sp, __metal_stack_pointer
2001002c:	dfff0117          	auipc	sp,0xdfff0
20010030:	fd410113          	addi	sp,sp,-44 # 0 <__metal_boot_hart>
/home/letsgrillbananas/wsFreedomStudio/embedded-software/freedom-metal/src/entry.S:55
   /* The METAL is designed for a bare-metal environment and therefore is expected
    * to define its own stack pointer. We also align the stack pointer here
    * because the only RISC-V ABI that's currently defined, mandates 16-byte
    * stack alignment. */

    bne sp, zero, 1f
20010034:	00011463          	bnez	sp,2001003c <_enter+0x3c>
/home/letsgrillbananas/wsFreedomStudio/embedded-software/freedom-metal/src/entry.S:56
    la sp, _sp
20010038:	cd818113          	addi	sp,gp,-808 # 80000960 <_sp>
/home/letsgrillbananas/wsFreedomStudio/embedded-software/freedom-metal/src/entry.S:59
1:
    /* Increment by hartid number of stack sizes */
    csrr a0, mhartid
2001003c:	f1402573          	csrr	a0,mhartid
/home/letsgrillbananas/wsFreedomStudio/embedded-software/freedom-metal/src/entry.S:60
    li t0, 0
20010040:	4281                	li	t0,0
/home/letsgrillbananas/wsFreedomStudio/embedded-software/freedom-metal/src/entry.S:61
    la t1, __stack_size
20010042:	40000313          	li	t1,1024
/home/letsgrillbananas/wsFreedomStudio/embedded-software/freedom-metal/src/entry.S:63
1:
    andi sp, sp, -16
20010046:	ff017113          	andi	sp,sp,-16
/home/letsgrillbananas/wsFreedomStudio/embedded-software/freedom-metal/src/entry.S:64
    beq t0, a0, 1f
2001004a:	00a28563          	beq	t0,a0,20010054 <_enter+0x54>
/home/letsgrillbananas/wsFreedomStudio/embedded-software/freedom-metal/src/entry.S:65
    add sp, sp, t1
2001004e:	911a                	add	sp,sp,t1
/home/letsgrillbananas/wsFreedomStudio/embedded-software/freedom-metal/src/entry.S:66
    addi t0, t0, 1
20010050:	0285                	addi	t0,t0,1
/home/letsgrillbananas/wsFreedomStudio/embedded-software/freedom-metal/src/entry.S:67
    j 1b
20010052:	bfd5                	j	20010046 <_enter+0x46>
/home/letsgrillbananas/wsFreedomStudio/embedded-software/freedom-metal/src/entry.S:76
     * just skip over the call entirely.   Note that __metal_initialize isn't
     * actually a full C function, as it doesn't end up with the .bss or .data
     * segments having been initialized.  This is done to avoid putting a
     * burden on systems that can be initialized without having a C environment
     * set up. */
    la ra, __metal_before_start
20010054:	00000097          	auipc	ra,0x0
20010058:	08208093          	addi	ra,ra,130 # 200100d6 <__metal_before_start>
/home/letsgrillbananas/wsFreedomStudio/embedded-software/freedom-metal/src/entry.S:77
    beqz ra, 1f
2001005c:	00008363          	beqz	ra,20010062 <_enter+0x62>
/home/letsgrillbananas/wsFreedomStudio/embedded-software/freedom-metal/src/entry.S:78
    jalr ra
20010060:	9082                	jalr	ra
/home/letsgrillbananas/wsFreedomStudio/embedded-software/freedom-metal/src/entry.S:84
1:

    /* At this point we can enter the C runtime's startup file.  The arguments
     * to this function are designed to match those provided to the SEE, just
     * so we don't have to write another ABI. */
    csrr a0, mhartid
20010062:	f1402573          	csrr	a0,mhartid
/home/letsgrillbananas/wsFreedomStudio/embedded-software/freedom-metal/src/entry.S:85
    li a1, 0
20010066:	4581                	li	a1,0
/home/letsgrillbananas/wsFreedomStudio/embedded-software/freedom-metal/src/entry.S:86
    li a2, 0
20010068:	4601                	li	a2,0
/home/letsgrillbananas/wsFreedomStudio/embedded-software/freedom-metal/src/entry.S:87
    call _start
2001006a:	20fd                	jal	20010158 <_start>
/home/letsgrillbananas/wsFreedomStudio/embedded-software/freedom-metal/src/entry.S:92

    /* If we've made it back here then there's probably something wrong.  We
     * allow the METAL to register a handler here. */
    .weak __metal_after_main
    la ra, __metal_after_main
2001006c:	dfff0097          	auipc	ra,0xdfff0
20010070:	f9408093          	addi	ra,ra,-108 # 0 <__metal_boot_hart>
/home/letsgrillbananas/wsFreedomStudio/embedded-software/freedom-metal/src/entry.S:93
    beqz ra, 1f
20010074:	00008363          	beqz	ra,2001007a <_enter+0x7a>
/home/letsgrillbananas/wsFreedomStudio/embedded-software/freedom-metal/src/entry.S:94
    jalr ra
20010078:	9082                	jalr	ra
/home/letsgrillbananas/wsFreedomStudio/embedded-software/freedom-metal/src/entry.S:99
1:

    /* If that handler returns then there's not a whole lot we can do.  Just
     * try to make some noise. */
     la t0, 1f
2001007a:	00000297          	auipc	t0,0x0
2001007e:	00c28293          	addi	t0,t0,12 # 20010086 <_enter+0x86>
/home/letsgrillbananas/wsFreedomStudio/embedded-software/freedom-metal/src/entry.S:100
     csrw mtvec, t0
20010082:	30529073          	csrw	mtvec,t0
/home/letsgrillbananas/wsFreedomStudio/embedded-software/freedom-metal/src/entry.S:102
1:
     lw t1, 0(x0)
20010086:	00002303          	lw	t1,0(zero) # 0 <__metal_boot_hart>
/home/letsgrillbananas/wsFreedomStudio/embedded-software/freedom-metal/src/entry.S:103
     j 1b
2001008a:	bff5                	j	20010086 <_enter+0x86>
2001008c:	0000                	unimp
	...

20010090 <__register_frame_info>:
__register_frame_info():
/home/letsgrillbananas/wsFreedomStudio/embedded-software/freedom-metal/src/entry.S:117
.weak __register_frame_info
.global __register_frame_info
.section .text.metal.init.__register_frame_info
__register_frame_info:
    .cfi_startproc
    ret
20010090:	8082                	ret

20010092 <metal_mem_scrub>:
metal_mem_scrub():
/home/letsgrillbananas/wsFreedomStudio/embedded-software/freedom-metal/src/scrub.S:24
.type metal_mem_scrub, @function
metal_mem_scrub:

    /* Disable machine interrupts,
    restore previous mstatus value at exit */
    li      a3, 8
20010092:	46a1                	li	a3,8
/home/letsgrillbananas/wsFreedomStudio/embedded-software/freedom-metal/src/scrub.S:25
    csrrc   t1, mstatus, a3
20010094:	3006b373          	csrrc	t1,mstatus,a3
/home/letsgrillbananas/wsFreedomStudio/embedded-software/freedom-metal/src/scrub.S:28

#if __riscv_xlen == 32
    addi    t0, x0, 4
20010098:	00400293          	li	t0,4
/home/letsgrillbananas/wsFreedomStudio/embedded-software/freedom-metal/src/scrub.S:30
1:
    blt     a1, t0, 2f
2001009c:	0055c563          	blt	a1,t0,200100a6 <metal_mem_scrub+0x14>
/home/letsgrillbananas/wsFreedomStudio/embedded-software/freedom-metal/src/scrub.S:31
    andi    a2, a0, 3
200100a0:	00357613          	andi	a2,a0,3
/home/letsgrillbananas/wsFreedomStudio/embedded-software/freedom-metal/src/scrub.S:32
    beqz    a2, 3f
200100a4:	ca11                	beqz	a2,200100b8 <metal_mem_scrub+0x26>
/home/letsgrillbananas/wsFreedomStudio/embedded-software/freedom-metal/src/scrub.S:34
2:
    sb      x0, 0(a0)
200100a6:	00050023          	sb	zero,0(a0)
/home/letsgrillbananas/wsFreedomStudio/embedded-software/freedom-metal/src/scrub.S:35
    addi    a0, a0, 1
200100aa:	0505                	addi	a0,a0,1
/home/letsgrillbananas/wsFreedomStudio/embedded-software/freedom-metal/src/scrub.S:36
    addi    a1, a1, -1
200100ac:	15fd                	addi	a1,a1,-1
/home/letsgrillbananas/wsFreedomStudio/embedded-software/freedom-metal/src/scrub.S:37
    bgtz    a1, 1b
200100ae:	feb047e3          	bgtz	a1,2001009c <metal_mem_scrub+0xa>
/home/letsgrillbananas/wsFreedomStudio/embedded-software/freedom-metal/src/scrub.S:38
    csrw    mstatus, t1
200100b2:	30031073          	csrw	mstatus,t1
/home/letsgrillbananas/wsFreedomStudio/embedded-software/freedom-metal/src/scrub.S:39
    ret
200100b6:	8082                	ret
/home/letsgrillbananas/wsFreedomStudio/embedded-software/freedom-metal/src/scrub.S:41
3:
    sw      x0, 0(a0)
200100b8:	00052023          	sw	zero,0(a0)
/home/letsgrillbananas/wsFreedomStudio/embedded-software/freedom-metal/src/scrub.S:42
    addi    a0, a0, 4
200100bc:	0511                	addi	a0,a0,4
/home/letsgrillbananas/wsFreedomStudio/embedded-software/freedom-metal/src/scrub.S:43
    addi    a1, a1, -4
200100be:	15f1                	addi	a1,a1,-4
/home/letsgrillbananas/wsFreedomStudio/embedded-software/freedom-metal/src/scrub.S:44
    bgtz    a1, 1b
200100c0:	fcb04ee3          	bgtz	a1,2001009c <metal_mem_scrub+0xa>
/home/letsgrillbananas/wsFreedomStudio/embedded-software/freedom-metal/src/scrub.S:45
    csrw    mstatus, t1
200100c4:	30031073          	csrw	mstatus,t1
/home/letsgrillbananas/wsFreedomStudio/embedded-software/freedom-metal/src/scrub.S:46
    ret
200100c8:	8082                	ret

200100ca <__metal_memory_scrub>:
__metal_memory_scrub():
/home/letsgrillbananas/wsFreedomStudio/embedded-software/freedom-metal/src/scrub.S:74
.type __metal_memory_scrub, @function
__metal_memory_scrub:
/* Zero out specified memory regions */
1:
#if __riscv_xlen == 32
    sw      x0, 0(t1)
200100ca:	00032023          	sw	zero,0(t1)
/home/letsgrillbananas/wsFreedomStudio/embedded-software/freedom-metal/src/scrub.S:75
    addi    t1, t1, 4
200100ce:	0311                	addi	t1,t1,4
/home/letsgrillbananas/wsFreedomStudio/embedded-software/freedom-metal/src/scrub.S:76
    blt     t1, t2, 1b
200100d0:	fe734de3          	blt	t1,t2,200100ca <__metal_memory_scrub>
/home/letsgrillbananas/wsFreedomStudio/embedded-software/freedom-metal/src/scrub.S:82
#else
    sd      x0, 0(t1)
    addi    t1, t1, 8
    blt     t1, t2, 1b
#endif
    ret
200100d4:	8082                	ret

200100d6 <__metal_before_start>:
__metal_before_start():
/home/letsgrillbananas/wsFreedomStudio/embedded-software/freedom-metal/src/scrub.S:94
.weak __metal_before_start
.global __metal_before_start
.type __metal_before_start, @function
__metal_before_start:
    /* Save caller ra */
    mv      s0, ra
200100d6:	8406                	mv	s0,ra
/home/letsgrillbananas/wsFreedomStudio/embedded-software/freedom-metal/src/scrub.S:96

    la      t0, __metal_eccscrub_bit
200100d8:	dfff0297          	auipc	t0,0xdfff0
200100dc:	f2828293          	addi	t0,t0,-216 # 0 <__metal_boot_hart>
/home/letsgrillbananas/wsFreedomStudio/embedded-software/freedom-metal/src/scrub.S:97
    beqz    t0, skip_scrub
200100e0:	04028c63          	beqz	t0,20010138 <skip_scrub>
/home/letsgrillbananas/wsFreedomStudio/embedded-software/freedom-metal/src/scrub.S:99

    la      t0, __metal_boot_hart
200100e4:	dfff0297          	auipc	t0,0xdfff0
200100e8:	f1c28293          	addi	t0,t0,-228 # 0 <__metal_boot_hart>
/home/letsgrillbananas/wsFreedomStudio/embedded-software/freedom-metal/src/scrub.S:100
    csrr    a5, mhartid
200100ec:	f14027f3          	csrr	a5,mhartid
/home/letsgrillbananas/wsFreedomStudio/embedded-software/freedom-metal/src/scrub.S:103

    /* Disable machine interrupts to be safe */
    li      a3, 8
200100f0:	46a1                	li	a3,8
/home/letsgrillbananas/wsFreedomStudio/embedded-software/freedom-metal/src/scrub.S:104
    csrc    mstatus, a3
200100f2:	3006b073          	csrc	mstatus,a3
/home/letsgrillbananas/wsFreedomStudio/embedded-software/freedom-metal/src/scrub.S:107

    /* Zero out per hart stack */
    mv      t1, sp
200100f6:	830a                	mv	t1,sp
/home/letsgrillbananas/wsFreedomStudio/embedded-software/freedom-metal/src/scrub.S:108
    la      t2, __stack_size
200100f8:	dfff0397          	auipc	t2,0xdfff0
200100fc:	30838393          	addi	t2,t2,776 # 400 <__stack_size>
/home/letsgrillbananas/wsFreedomStudio/embedded-software/freedom-metal/src/scrub.S:109
    add     t2, t2, sp
20010100:	938a                	add	t2,t2,sp
/home/letsgrillbananas/wsFreedomStudio/embedded-software/freedom-metal/src/scrub.S:110
    beq     t1, t2, 1f
20010102:	00730363          	beq	t1,t2,20010108 <__metal_before_start+0x32>
/home/letsgrillbananas/wsFreedomStudio/embedded-software/freedom-metal/src/scrub.S:111
    jal     __metal_memory_scrub
20010106:	37d1                	jal	200100ca <__metal_memory_scrub>
/home/letsgrillbananas/wsFreedomStudio/embedded-software/freedom-metal/src/scrub.S:113
1:
    bne     a5, t0, skip_scrub
20010108:	02579863          	bne	a5,t0,20010138 <skip_scrub>
/home/letsgrillbananas/wsFreedomStudio/embedded-software/freedom-metal/src/scrub.S:116

    /* Zero out data segment */
    la      t1, metal_segment_data_target_start
2001010c:	5fff0317          	auipc	t1,0x5fff0
20010110:	ef430313          	addi	t1,t1,-268 # 80000000 <metal_segment_lim_target_end>
/home/letsgrillbananas/wsFreedomStudio/embedded-software/freedom-metal/src/scrub.S:117
    la      t2, metal_segment_data_target_end
20010114:	5fff0397          	auipc	t2,0x5fff0
20010118:	3b438393          	addi	t2,t2,948 # 800004c8 <__tls_base>
/home/letsgrillbananas/wsFreedomStudio/embedded-software/freedom-metal/src/scrub.S:118
    beq     t1, t2, 1f
2001011c:	00730363          	beq	t1,t2,20010122 <__metal_before_start+0x4c>
/home/letsgrillbananas/wsFreedomStudio/embedded-software/freedom-metal/src/scrub.S:119
    jal     __metal_memory_scrub
20010120:	376d                	jal	200100ca <__metal_memory_scrub>
/home/letsgrillbananas/wsFreedomStudio/embedded-software/freedom-metal/src/scrub.S:122
1:
    /* Zero out itim memory */
    la      t1, metal_segment_itim_target_start
20010122:	e7ff0317          	auipc	t1,0xe7ff0
20010126:	ede30313          	addi	t1,t1,-290 # 8000000 <metal_segment_itim_target_end>
/home/letsgrillbananas/wsFreedomStudio/embedded-software/freedom-metal/src/scrub.S:123
    la      t2, metal_segment_itim_target_end
2001012a:	e7ff0397          	auipc	t2,0xe7ff0
2001012e:	ed638393          	addi	t2,t2,-298 # 8000000 <metal_segment_itim_target_end>
/home/letsgrillbananas/wsFreedomStudio/embedded-software/freedom-metal/src/scrub.S:124
    beq     t1, t2, skip_scrub
20010132:	00730363          	beq	t1,t2,20010138 <skip_scrub>
/home/letsgrillbananas/wsFreedomStudio/embedded-software/freedom-metal/src/scrub.S:125
    jal     __metal_memory_scrub
20010136:	3f51                	jal	200100ca <__metal_memory_scrub>

20010138 <skip_scrub>:
skip_scrub():
/home/letsgrillbananas/wsFreedomStudio/embedded-software/freedom-metal/src/scrub.S:129

skip_scrub:
    /* Restore caller ra */
    mv      ra, s0
20010138:	80a2                	mv	ra,s0
/home/letsgrillbananas/wsFreedomStudio/embedded-software/freedom-metal/src/scrub.S:130
    ret
2001013a:	8082                	ret

2001013c <early_trap_vector>:
early_trap_vector():
/home/letsgrillbananas/wsFreedomStudio/embedded-software/freedom-metal/src/trap.S:64
.section .text.metal.init.trapvec
.global early_trap_vector
.align 2
early_trap_vector:
    .cfi_startproc
    csrr t0, mcause
2001013c:	342022f3          	csrr	t0,mcause
/home/letsgrillbananas/wsFreedomStudio/embedded-software/freedom-metal/src/trap.S:65
    csrr t1, mepc
20010140:	34102373          	csrr	t1,mepc
/home/letsgrillbananas/wsFreedomStudio/embedded-software/freedom-metal/src/trap.S:66
    csrr t2, mtval
20010144:	343023f3          	csrr	t2,mtval
/home/letsgrillbananas/wsFreedomStudio/embedded-software/freedom-metal/src/trap.S:67
    j early_trap_vector
20010148:	bfd5                	j	2001013c <early_trap_vector>

2001014a <__metal_synchronize_harts>:
__metal_synchronize_harts():
/home/letsgrillbananas/wsFreedomStudio/embedded-software/freedom-metal/src/synchronize_harts.c:19
/*
 * _synchronize_harts() is called by crt0.S to cause harts > 0 to wait for
 * hart 0 to finish copying the datat section, zeroing the BSS, and running
 * the libc contstructors.
 */
__attribute__((section(".init"))) void __metal_synchronize_harts() {
2001014a:	1141                	addi	sp,sp,-16
2001014c:	c622                	sw	s0,12(sp)
2001014e:	0800                	addi	s0,sp,16
/home/letsgrillbananas/wsFreedomStudio/embedded-software/freedom-metal/src/synchronize_harts.c:66
        while (METAL_MSIP(msip_base, hart) == 1)
            ;
    }

#endif /* __METAL_DT_MAX_HARTS > 1 */
}
20010150:	0001                	nop
20010152:	4432                	lw	s0,12(sp)
20010154:	0141                	addi	sp,sp,16
20010156:	8082                	ret

20010158 <_start>:
_start():
/home/letsgrillbananas/wsFreedomStudio/embedded-software/freedom-metal/gloss/crt0.S:36
.cfi_startproc
.cfi_undefined ra

  /* This is a bit funky: it's not usually sane for _start to return, but in
   * this case we actually want to in order to signal an error to the METAL. */
  mv s0, ra
20010158:	8406                	mv	s0,ra
/home/letsgrillbananas/wsFreedomStudio/embedded-software/freedom-metal/gloss/crt0.S:44
   * safely perform any access that may be relaxed without GP being set.  This
   * is done with relaxation disabled to avoid relaxing the address calculation
   * to just "addi gp, gp, 0". */
.option push
.option norelax
  la gp, __global_pointer$
2001015a:	5fff1197          	auipc	gp,0x5fff1
2001015e:	b2e18193          	addi	gp,gp,-1234 # 80000c88 <__global_pointer$>
/home/letsgrillbananas/wsFreedomStudio/embedded-software/freedom-metal/gloss/crt0.S:50
.option pop

  /* Stack pointer is expected to be initialized before _start */

  /* If we're not hart 0, skip the initialization work */
  la t0, __metal_boot_hart
20010162:	00000293          	li	t0,0
/home/letsgrillbananas/wsFreedomStudio/embedded-software/freedom-metal/gloss/crt0.S:51
  bne a0, t0, _skip_init
20010166:	0e551163          	bne	a0,t0,20010248 <_skip_init>
/home/letsgrillbananas/wsFreedomStudio/embedded-software/freedom-metal/gloss/crt0.S:60
   * boot and then need to get relocated into a non-persistant writable memory
   * before C code can execute.  If this is the case we do so here.  This step
   * is optional: if the METAL provides an environment in which this relocation
   * is not necessary then it must simply set metal_segment_data_source_start to
   * be equal to metal_segment_data_target_start. */
  la t0, metal_segment_data_source_start
2001016a:	00004297          	auipc	t0,0x4
2001016e:	cde28293          	addi	t0,t0,-802 # 20013e48 <metal_segment_data_source_start>
/home/letsgrillbananas/wsFreedomStudio/embedded-software/freedom-metal/gloss/crt0.S:61
  la t1, metal_segment_data_target_start
20010172:	5fff0317          	auipc	t1,0x5fff0
20010176:	e8e30313          	addi	t1,t1,-370 # 80000000 <metal_segment_lim_target_end>
/home/letsgrillbananas/wsFreedomStudio/embedded-software/freedom-metal/gloss/crt0.S:62
  la t2, metal_segment_data_target_end
2001017a:	5fff0397          	auipc	t2,0x5fff0
2001017e:	34e38393          	addi	t2,t2,846 # 800004c8 <__tls_base>
/home/letsgrillbananas/wsFreedomStudio/embedded-software/freedom-metal/gloss/crt0.S:64

  beq t0, t1, 2f
20010182:	00628c63          	beq	t0,t1,2001019a <_start+0x42>
/home/letsgrillbananas/wsFreedomStudio/embedded-software/freedom-metal/gloss/crt0.S:65
  bge t1, t2, 2f
20010186:	00735a63          	bge	t1,t2,2001019a <_start+0x42>
/home/letsgrillbananas/wsFreedomStudio/embedded-software/freedom-metal/gloss/crt0.S:69

1:
#if __riscv_xlen == 32
  lw   a0, 0(t0)
2001018a:	0002a503          	lw	a0,0(t0)
/home/letsgrillbananas/wsFreedomStudio/embedded-software/freedom-metal/gloss/crt0.S:70
  addi t0, t0, 4
2001018e:	0291                	addi	t0,t0,4
/home/letsgrillbananas/wsFreedomStudio/embedded-software/freedom-metal/gloss/crt0.S:71
  sw   a0, 0(t1)
20010190:	00a32023          	sw	a0,0(t1)
/home/letsgrillbananas/wsFreedomStudio/embedded-software/freedom-metal/gloss/crt0.S:72
  addi t1, t1, 4
20010194:	0311                	addi	t1,t1,4
/home/letsgrillbananas/wsFreedomStudio/embedded-software/freedom-metal/gloss/crt0.S:73
  blt  t1, t2, 1b
20010196:	fe734ae3          	blt	t1,t2,2001018a <_start+0x32>
/home/letsgrillbananas/wsFreedomStudio/embedded-software/freedom-metal/gloss/crt0.S:84
  blt  t1, t2, 1b
#endif
2:

  /* Copy the ITIM section */
  la t0, metal_segment_itim_source_start
2001019a:	00001297          	auipc	t0,0x1
2001019e:	bee28293          	addi	t0,t0,-1042 # 20010d88 <metal_segment_itim_source_start>
/home/letsgrillbananas/wsFreedomStudio/embedded-software/freedom-metal/gloss/crt0.S:85
  la t1, metal_segment_itim_target_start
200101a2:	e7ff0317          	auipc	t1,0xe7ff0
200101a6:	e5e30313          	addi	t1,t1,-418 # 8000000 <metal_segment_itim_target_end>
/home/letsgrillbananas/wsFreedomStudio/embedded-software/freedom-metal/gloss/crt0.S:86
  la t2, metal_segment_itim_target_end
200101aa:	e7ff0397          	auipc	t2,0xe7ff0
200101ae:	e5638393          	addi	t2,t2,-426 # 8000000 <metal_segment_itim_target_end>
/home/letsgrillbananas/wsFreedomStudio/embedded-software/freedom-metal/gloss/crt0.S:88

  beq t0, t1, 2f
200101b2:	00628c63          	beq	t0,t1,200101ca <_start+0x72>
/home/letsgrillbananas/wsFreedomStudio/embedded-software/freedom-metal/gloss/crt0.S:89
  bge t1, t2, 2f
200101b6:	00735a63          	bge	t1,t2,200101ca <_start+0x72>
/home/letsgrillbananas/wsFreedomStudio/embedded-software/freedom-metal/gloss/crt0.S:93

1:
#if __riscv_xlen == 32
  lw   a0, 0(t0)
200101ba:	0002a503          	lw	a0,0(t0)
/home/letsgrillbananas/wsFreedomStudio/embedded-software/freedom-metal/gloss/crt0.S:94
  addi t0, t0, 4
200101be:	0291                	addi	t0,t0,4
/home/letsgrillbananas/wsFreedomStudio/embedded-software/freedom-metal/gloss/crt0.S:95
  sw   a0, 0(t1)
200101c0:	00a32023          	sw	a0,0(t1)
/home/letsgrillbananas/wsFreedomStudio/embedded-software/freedom-metal/gloss/crt0.S:96
  addi t1, t1, 4
200101c4:	0311                	addi	t1,t1,4
/home/letsgrillbananas/wsFreedomStudio/embedded-software/freedom-metal/gloss/crt0.S:97
  blt  t1, t2, 1b
200101c6:	fe734ae3          	blt	t1,t2,200101ba <_start+0x62>
/home/letsgrillbananas/wsFreedomStudio/embedded-software/freedom-metal/gloss/crt0.S:109
#endif
2:

  /* Fence all subsequent instruction fetches until after the ITIM writes
     complete */
  fence.i
200101ca:	0000100f          	fence.i
/home/letsgrillbananas/wsFreedomStudio/embedded-software/freedom-metal/gloss/crt0.S:114

2:

  /* Copy the LIM section */
  la t0, metal_segment_lim_source_start
200101ce:	00001297          	auipc	t0,0x1
200101d2:	bba28293          	addi	t0,t0,-1094 # 20010d88 <metal_segment_itim_source_start>
/home/letsgrillbananas/wsFreedomStudio/embedded-software/freedom-metal/gloss/crt0.S:115
  la t1, metal_segment_lim_target_start
200101d6:	5fff0317          	auipc	t1,0x5fff0
200101da:	e2a30313          	addi	t1,t1,-470 # 80000000 <metal_segment_lim_target_end>
/home/letsgrillbananas/wsFreedomStudio/embedded-software/freedom-metal/gloss/crt0.S:116
  la t2, metal_segment_lim_target_end
200101de:	5fff0397          	auipc	t2,0x5fff0
200101e2:	e2238393          	addi	t2,t2,-478 # 80000000 <metal_segment_lim_target_end>
/home/letsgrillbananas/wsFreedomStudio/embedded-software/freedom-metal/gloss/crt0.S:118

  beq t0, t1, 2f
200101e6:	00628c63          	beq	t0,t1,200101fe <_start+0xa6>
/home/letsgrillbananas/wsFreedomStudio/embedded-software/freedom-metal/gloss/crt0.S:119
  bge t1, t2, 2f
200101ea:	00735a63          	bge	t1,t2,200101fe <_start+0xa6>
/home/letsgrillbananas/wsFreedomStudio/embedded-software/freedom-metal/gloss/crt0.S:123

1:
#if __riscv_xlen == 32
  lw   a0, 0(t0)
200101ee:	0002a503          	lw	a0,0(t0)
/home/letsgrillbananas/wsFreedomStudio/embedded-software/freedom-metal/gloss/crt0.S:124
  addi t0, t0, 4
200101f2:	0291                	addi	t0,t0,4
/home/letsgrillbananas/wsFreedomStudio/embedded-software/freedom-metal/gloss/crt0.S:125
  sw   a0, 0(t1)
200101f4:	00a32023          	sw	a0,0(t1)
/home/letsgrillbananas/wsFreedomStudio/embedded-software/freedom-metal/gloss/crt0.S:126
  addi t1, t1, 4
200101f8:	0311                	addi	t1,t1,4
/home/letsgrillbananas/wsFreedomStudio/embedded-software/freedom-metal/gloss/crt0.S:127
  blt  t1, t2, 1b
200101fa:	fe734ae3          	blt	t1,t2,200101ee <_start+0x96>
/home/letsgrillbananas/wsFreedomStudio/embedded-software/freedom-metal/gloss/crt0.S:139
#endif
2:

  /* Fence all subsequent instruction fetches until after the LIM writes
     complete */
  fence.i
200101fe:	0000100f          	fence.i
/home/letsgrillbananas/wsFreedomStudio/embedded-software/freedom-metal/gloss/crt0.S:142

  /* Zero the BSS segment. */
  la t1, metal_segment_bss_target_start
20010202:	5fff0317          	auipc	t1,0x5fff0
20010206:	2c630313          	addi	t1,t1,710 # 800004c8 <__tls_base>
/home/letsgrillbananas/wsFreedomStudio/embedded-software/freedom-metal/gloss/crt0.S:143
  la t2, metal_segment_bss_target_end
2001020a:	8d818393          	addi	t2,gp,-1832 # 80000560 <metal_segment_bss_target_end>
/home/letsgrillbananas/wsFreedomStudio/embedded-software/freedom-metal/gloss/crt0.S:145

  bge t1, t2, 2f
2001020e:	00735763          	bge	t1,t2,2001021c <_start+0xc4>
/home/letsgrillbananas/wsFreedomStudio/embedded-software/freedom-metal/gloss/crt0.S:149

1:
#if __riscv_xlen == 32
  sw   x0, 0(t1)
20010212:	00032023          	sw	zero,0(t1)
/home/letsgrillbananas/wsFreedomStudio/embedded-software/freedom-metal/gloss/crt0.S:150
  addi t1, t1, 4
20010216:	0311                	addi	t1,t1,4
/home/letsgrillbananas/wsFreedomStudio/embedded-software/freedom-metal/gloss/crt0.S:151
  blt  t1, t2, 1b
20010218:	fe734de3          	blt	t1,t2,20010212 <_start+0xba>
/home/letsgrillbananas/wsFreedomStudio/embedded-software/freedom-metal/gloss/crt0.S:161
#endif
2:

  /* Set TLS pointer */
  .weak __tls_base	
  la tp, __tls_base
2001021c:	5fff0217          	auipc	tp,0x5fff0
20010220:	2ac20213          	addi	tp,tp,684 # 800004c8 <__tls_base>
/home/letsgrillbananas/wsFreedomStudio/embedded-software/freedom-metal/gloss/crt0.S:166

  /* At this point we're in an environment that can execute C code.  The first
   * thing to do is to make the callback to the parent environment if it's been
   * requested to do so. */
  beqz a2, 1f
20010224:	c211                	beqz	a2,20010228 <_start+0xd0>
/home/letsgrillbananas/wsFreedomStudio/embedded-software/freedom-metal/gloss/crt0.S:167
  jalr a2
20010226:	9602                	jalr	a2
/home/letsgrillbananas/wsFreedomStudio/embedded-software/freedom-metal/gloss/crt0.S:171
1:

  /* The RISC-V port only uses new-style constructors and destructors. */
  la a0, __libc_fini_array
20010228:	00001517          	auipc	a0,0x1
2001022c:	c1e50513          	addi	a0,a0,-994 # 20010e46 <__libc_fini_array>
/home/letsgrillbananas/wsFreedomStudio/embedded-software/freedom-metal/gloss/crt0.S:172
  call atexit
20010230:	3e1000ef          	jal	ra,20010e10 <atexit>
/home/letsgrillbananas/wsFreedomStudio/embedded-software/freedom-metal/gloss/crt0.S:173
  call __libc_init_array
20010234:	44b000ef          	jal	ra,20010e7e <__libc_init_array>
/home/letsgrillbananas/wsFreedomStudio/embedded-software/freedom-metal/gloss/crt0.S:177

  /* Register metal_fini_run as a destructor and call metal_init_run to
   * run and setup Metal constructors */
  la a0, metal_fini_run
20010238:	00001517          	auipc	a0,0x1
2001023c:	f0450513          	addi	a0,a0,-252 # 2001113c <metal_fini_run>
/home/letsgrillbananas/wsFreedomStudio/embedded-software/freedom-metal/gloss/crt0.S:178
  call atexit
20010240:	3d1000ef          	jal	ra,20010e10 <atexit>
/home/letsgrillbananas/wsFreedomStudio/embedded-software/freedom-metal/gloss/crt0.S:179
  call metal_init_run
20010244:	6e5000ef          	jal	ra,20011128 <metal_init_run>

20010248 <_skip_init>:
_skip_init():
/home/letsgrillbananas/wsFreedomStudio/embedded-software/freedom-metal/gloss/crt0.S:185

_skip_init:

  /* Synchronize harts so that secondary harts wait until hart 0 finishes
     initializing */
  call __metal_synchronize_harts
20010248:	3709                	jal	2001014a <__metal_synchronize_harts>
/home/letsgrillbananas/wsFreedomStudio/embedded-software/freedom-metal/gloss/crt0.S:188

  /* Disable and clear all interrupt sources */
  li   a3, -1
2001024a:	56fd                	li	a3,-1
/home/letsgrillbananas/wsFreedomStudio/embedded-software/freedom-metal/gloss/crt0.S:189
  csrc mie, a3
2001024c:	3046b073          	csrc	mie,a3
/home/letsgrillbananas/wsFreedomStudio/embedded-software/freedom-metal/gloss/crt0.S:190
  csrc mip, a3
20010250:	3446b073          	csrc	mip,a3
/home/letsgrillbananas/wsFreedomStudio/embedded-software/freedom-metal/gloss/crt0.S:194

  /* The delegation CSRs exist if user mode interrupts (N extension) or
   * supervisor mode (S extension) are supported */
  csrr a5, misa
20010254:	301027f3          	csrr	a5,misa
/home/letsgrillbananas/wsFreedomStudio/embedded-software/freedom-metal/gloss/crt0.S:195
  lui  a4, 0x42
20010258:	00042737          	lui	a4,0x42
/home/letsgrillbananas/wsFreedomStudio/embedded-software/freedom-metal/gloss/crt0.S:196
  and  a4, a4, a5
2001025c:	8f7d                	and	a4,a4,a5
/home/letsgrillbananas/wsFreedomStudio/embedded-software/freedom-metal/gloss/crt0.S:197
  beqz a4, 1f
2001025e:	c709                	beqz	a4,20010268 <_skip_init+0x20>
/home/letsgrillbananas/wsFreedomStudio/embedded-software/freedom-metal/gloss/crt0.S:198
  csrc mideleg, a3
20010260:	3036b073          	csrc	mideleg,a3
/home/letsgrillbananas/wsFreedomStudio/embedded-software/freedom-metal/gloss/crt0.S:199
  csrc medeleg, a3
20010264:	3026b073          	csrc	medeleg,a3
/home/letsgrillbananas/wsFreedomStudio/embedded-software/freedom-metal/gloss/crt0.S:203
1:

  /* The satp CSR exists if supervisor mode (S extension) is supported */
  lui  a4, 0x40
20010268:	00040737          	lui	a4,0x40
/home/letsgrillbananas/wsFreedomStudio/embedded-software/freedom-metal/gloss/crt0.S:204
  and  a4, a4, a5
2001026c:	8f7d                	and	a4,a4,a5
/home/letsgrillbananas/wsFreedomStudio/embedded-software/freedom-metal/gloss/crt0.S:205
  beqz a4, 1f
2001026e:	c319                	beqz	a4,20010274 <_skip_init+0x2c>
/home/letsgrillbananas/wsFreedomStudio/embedded-software/freedom-metal/gloss/crt0.S:206
  csrc satp, a3
20010270:	1806b073          	csrc	satp,a3
/home/letsgrillbananas/wsFreedomStudio/embedded-software/freedom-metal/gloss/crt0.S:210
1:

  /* Check RISC-V isa and enable FS bits if Floating Point architecture. */
  li   a4, 0x10028
20010274:	00010737          	lui	a4,0x10
20010278:	02870713          	addi	a4,a4,40 # 10028 <__heap_size+0xf828>
/home/letsgrillbananas/wsFreedomStudio/embedded-software/freedom-metal/gloss/crt0.S:211
  and  a5, a5, a4
2001027c:	8ff9                	and	a5,a5,a4
/home/letsgrillbananas/wsFreedomStudio/embedded-software/freedom-metal/gloss/crt0.S:212
  beqz a5, 1f
2001027e:	cb89                	beqz	a5,20010290 <_skip_init+0x48>
/home/letsgrillbananas/wsFreedomStudio/embedded-software/freedom-metal/gloss/crt0.S:213
  csrr a5, mstatus
20010280:	300027f3          	csrr	a5,mstatus
/home/letsgrillbananas/wsFreedomStudio/embedded-software/freedom-metal/gloss/crt0.S:214
  lui  a4, 0x2
20010284:	6709                	lui	a4,0x2
/home/letsgrillbananas/wsFreedomStudio/embedded-software/freedom-metal/gloss/crt0.S:215
  or   a5, a5, a4
20010286:	8fd9                	or	a5,a5,a4
/home/letsgrillbananas/wsFreedomStudio/embedded-software/freedom-metal/gloss/crt0.S:216
  csrw mstatus, a5
20010288:	30079073          	csrw	mstatus,a5
/home/letsgrillbananas/wsFreedomStudio/embedded-software/freedom-metal/gloss/crt0.S:217
  csrwi fcsr, 0
2001028c:	00305073          	csrwi	fcsr,0
/home/letsgrillbananas/wsFreedomStudio/embedded-software/freedom-metal/gloss/crt0.S:221
1:

  /* Check for vector extension support and enable it if found */
  csrr a5, misa
20010290:	301027f3          	csrr	a5,misa
/home/letsgrillbananas/wsFreedomStudio/embedded-software/freedom-metal/gloss/crt0.S:222
  li a4, 0x200000
20010294:	00200737          	lui	a4,0x200
/home/letsgrillbananas/wsFreedomStudio/embedded-software/freedom-metal/gloss/crt0.S:223
  and a5, a5, a4
20010298:	8ff9                	and	a5,a5,a4
/home/letsgrillbananas/wsFreedomStudio/embedded-software/freedom-metal/gloss/crt0.S:224
  beqz a5, 1f
2001029a:	c799                	beqz	a5,200102a8 <_skip_init+0x60>
/home/letsgrillbananas/wsFreedomStudio/embedded-software/freedom-metal/gloss/crt0.S:225
  csrr a5, mstatus
2001029c:	300027f3          	csrr	a5,mstatus
/home/letsgrillbananas/wsFreedomStudio/embedded-software/freedom-metal/gloss/crt0.S:226
  ori a5, a5, 0x200
200102a0:	2007e793          	ori	a5,a5,512
/home/letsgrillbananas/wsFreedomStudio/embedded-software/freedom-metal/gloss/crt0.S:227
  csrw mstatus, a5
200102a4:	30079073          	csrw	mstatus,a5
/home/letsgrillbananas/wsFreedomStudio/embedded-software/freedom-metal/gloss/crt0.S:233
1:

  /* This is a C runtime, so main() is defined to have some arguments.  Since
   * there's nothing sane the METAL can pass we don't bother with that but
   * instead just setup as close to a NOP as we can. */
  li a0, 1     /* argc=1 */
200102a8:	4505                	li	a0,1
/home/letsgrillbananas/wsFreedomStudio/embedded-software/freedom-metal/gloss/crt0.S:234
  la a1, argv  /* argv = {"libgloss", NULL} */
200102aa:	00000597          	auipc	a1,0x0
200102ae:	09e58593          	addi	a1,a1,158 # 20010348 <argv>
/home/letsgrillbananas/wsFreedomStudio/embedded-software/freedom-metal/gloss/crt0.S:235
  la a2, envp  /* envp = {NULL} */
200102b2:	00000617          	auipc	a2,0x0
200102b6:	09a60613          	addi	a2,a2,154 # 2001034c <envp>
/home/letsgrillbananas/wsFreedomStudio/embedded-software/freedom-metal/gloss/crt0.S:236
  call secondary_main
200102ba:	2031                	jal	200102c6 <secondary_main>
/home/letsgrillbananas/wsFreedomStudio/embedded-software/freedom-metal/gloss/crt0.S:242

  /* Call exit to handle libc's cleanup routines.  Under normal contains this
   * shouldn't even get called, but I'm still not using a tail call here
   * because returning to the METAL is the right thing to do in pathological
   * situations. */
  call exit
200102bc:	35f000ef          	jal	ra,20010e1a <exit>
/home/letsgrillbananas/wsFreedomStudio/embedded-software/freedom-metal/gloss/crt0.S:247

  /* And here's where we return.  Again, it's a bit odd but the METAL defines
   * this as a bad idea (ie, as opposed to leaving it undefined) and at this
   * point it's really the only thing left to do. */
  mv ra, s0
200102c0:	80a2                	mv	ra,s0
/home/letsgrillbananas/wsFreedomStudio/embedded-software/freedom-metal/gloss/crt0.S:248
  ret
200102c2:	8082                	ret

200102c4 <_fini>:
_init():
/home/letsgrillbananas/wsFreedomStudio/embedded-software/freedom-metal/gloss/crt0.S:260
.type   _init, @function
.global _fini
.type   _fini, @function
_init:
_fini:
  ret
200102c4:	8082                	ret

200102c6 <secondary_main>:
secondary_main():
/home/letsgrillbananas/wsFreedomStudio/embedded-software/freedom-metal/gloss/crt0.S:271
.weak   secondary_main
.global secondary_main
.type   secondary_main, @function

secondary_main:
  addi sp, sp, -16
200102c6:	1141                	addi	sp,sp,-16
/home/letsgrillbananas/wsFreedomStudio/embedded-software/freedom-metal/gloss/crt0.S:273
#if __riscv_xlen == 32
  sw ra, 4(sp)
200102c8:	c206                	sw	ra,4(sp)
/home/letsgrillbananas/wsFreedomStudio/embedded-software/freedom-metal/gloss/crt0.S:277
#else
  sd ra, 8(sp)
#endif
  csrr t0, mhartid
200102ca:	f14022f3          	csrr	t0,mhartid
/home/letsgrillbananas/wsFreedomStudio/embedded-software/freedom-metal/gloss/crt0.S:278
  la t1, __metal_boot_hart
200102ce:	00000313          	li	t1,0
/home/letsgrillbananas/wsFreedomStudio/embedded-software/freedom-metal/gloss/crt0.S:279
  beq t0, t1, 2f
200102d2:	00628563          	beq	t0,t1,200102dc <secondary_main+0x16>
/home/letsgrillbananas/wsFreedomStudio/embedded-software/freedom-metal/gloss/crt0.S:281
1:
  wfi
200102d6:	10500073          	wfi
/home/letsgrillbananas/wsFreedomStudio/embedded-software/freedom-metal/gloss/crt0.S:282
  j 1b
200102da:	bff5                	j	200102d6 <secondary_main+0x10>
/home/letsgrillbananas/wsFreedomStudio/embedded-software/freedom-metal/gloss/crt0.S:284
2:
  call main
200102dc:	325000ef          	jal	ra,20010e00 <main>
/home/letsgrillbananas/wsFreedomStudio/embedded-software/freedom-metal/gloss/crt0.S:286
#if __riscv_xlen == 32
  lw ra, 4(sp)
200102e0:	4092                	lw	ra,4(sp)
/home/letsgrillbananas/wsFreedomStudio/embedded-software/freedom-metal/gloss/crt0.S:290
#else
  ld ra, 8(sp)
#endif
  addi sp, sp, 16
200102e2:	0141                	addi	sp,sp,16
/home/letsgrillbananas/wsFreedomStudio/embedded-software/freedom-metal/gloss/crt0.S:291
  ret
200102e4:	8082                	ret

Disassembly of section .ctors:

200102f0 <metal_sifive_fe310_g000_pll_init>:
metal_sifive_fe310_g000_pll_init():
/home/letsgrillbananas/wsFreedomStudio/embedded-software/freedom-metal/src/drivers/sifive_fe310-g000_pll.c:151
    return pll_input_rate * config->multiplier / config->divisor;
}

#ifdef __METAL_DT_SIFIVE_FE310_G000_PLL_HANDLE

METAL_CONSTRUCTOR(metal_sifive_fe310_g000_pll_init) {
200102f0:	1101                	addi	sp,sp,-32
200102f2:	ce06                	sw	ra,28(sp)
200102f4:	cc22                	sw	s0,24(sp)
200102f6:	1000                	addi	s0,sp,32
/home/letsgrillbananas/wsFreedomStudio/embedded-software/freedom-metal/src/drivers/sifive_fe310-g000_pll.c:152
    long init_rate = __metal_driver_sifive_fe310_g000_pll_init_rate();
200102f8:	1b2030ef          	jal	ra,200134aa <__metal_driver_sifive_fe310_g000_pll_init_rate>
200102fc:	fea42623          	sw	a0,-20(s0)
/home/letsgrillbananas/wsFreedomStudio/embedded-software/freedom-metal/src/drivers/sifive_fe310-g000_pll.c:154
    /* If the PLL init_rate is zero, don't initialize the PLL */
    if (init_rate != 0)
20010300:	fec42783          	lw	a5,-20(s0)
20010304:	c799                	beqz	a5,20010312 <metal_sifive_fe310_g000_pll_init+0x22>
/home/letsgrillbananas/wsFreedomStudio/embedded-software/freedom-metal/src/drivers/sifive_fe310-g000_pll.c:155
        __metal_driver_sifive_fe310_g000_pll_init(
20010306:	800007b7          	lui	a5,0x80000
2001030a:	47878513          	addi	a0,a5,1144 # 80000478 <__global_pointer$+0xfffff7f0>
2001030e:	224030ef          	jal	ra,20013532 <__metal_driver_sifive_fe310_g000_pll_init>
/home/letsgrillbananas/wsFreedomStudio/embedded-software/freedom-metal/src/drivers/sifive_fe310-g000_pll.c:157
            __METAL_DT_SIFIVE_FE310_G000_PLL_HANDLE);
}
20010312:	0001                	nop
20010314:	40f2                	lw	ra,28(sp)
20010316:	4462                	lw	s0,24(sp)
20010318:	6105                	addi	sp,sp,32
2001031a:	8082                	ret

2001031c <use_hfxosc>:
use_hfxosc():
/home/letsgrillbananas/wsFreedomStudio/embedded-software/freedom-metal/src/drivers/sifive_fe310-g000_pll.c:389

    return __metal_driver_sifive_fe310_g000_pll_get_rate_hz(clock);
}

#ifdef __METAL_DT_SIFIVE_FE310_G000_PLL_HANDLE
METAL_CONSTRUCTOR(use_hfxosc) {
2001031c:	1101                	addi	sp,sp,-32
2001031e:	ce06                	sw	ra,28(sp)
20010320:	cc22                	sw	s0,24(sp)
20010322:	1000                	addi	s0,sp,32
/home/letsgrillbananas/wsFreedomStudio/embedded-software/freedom-metal/src/drivers/sifive_fe310-g000_pll.c:390
    long init_rate = __metal_driver_sifive_fe310_g000_pll_init_rate();
20010324:	186030ef          	jal	ra,200134aa <__metal_driver_sifive_fe310_g000_pll_init_rate>
20010328:	fea42623          	sw	a0,-20(s0)
/home/letsgrillbananas/wsFreedomStudio/embedded-software/freedom-metal/src/drivers/sifive_fe310-g000_pll.c:391
    metal_clock_set_rate_hz(&__METAL_DT_SIFIVE_FE310_G000_PLL_HANDLE->clock,
2001032c:	fec42583          	lw	a1,-20(s0)
20010330:	800007b7          	lui	a5,0x80000
20010334:	47878513          	addi	a0,a5,1144 # 80000478 <__global_pointer$+0xfffff7f0>
20010338:	095030ef          	jal	ra,20013bcc <metal_clock_set_rate_hz>
/home/letsgrillbananas/wsFreedomStudio/embedded-software/freedom-metal/src/drivers/sifive_fe310-g000_pll.c:393
                            init_rate);
}
2001033c:	0001                	nop
2001033e:	40f2                	lw	ra,28(sp)
20010340:	4462                	lw	s0,24(sp)
20010342:	6105                	addi	sp,sp,32
20010344:	8082                	ret

Disassembly of section .text:

20010e00 <main>:
main():
/home/letsgrillbananas/wsFreedomStudio/embedded-software/src/main.c:4
/* Copyright 2019 SiFive, Inc */
/* SPDX-License-Identifier: Apache-2.0 */

int main() {
20010e00:	1141                	addi	sp,sp,-16
20010e02:	c622                	sw	s0,12(sp)
20010e04:	0800                	addi	s0,sp,16
/home/letsgrillbananas/wsFreedomStudio/embedded-software/src/main.c:5
	return 0;
20010e06:	4781                	li	a5,0
/home/letsgrillbananas/wsFreedomStudio/embedded-software/src/main.c:6
}
20010e08:	853e                	mv	a0,a5
20010e0a:	4432                	lw	s0,12(sp)
20010e0c:	0141                	addi	sp,sp,16
20010e0e:	8082                	ret

20010e10 <atexit>:
atexit():
20010e10:	85aa                	mv	a1,a0
20010e12:	4681                	li	a3,0
20010e14:	4601                	li	a2,0
20010e16:	4501                	li	a0,0
20010e18:	a8c1                	j	20010ee8 <__register_exitproc>

20010e1a <exit>:
exit():
20010e1a:	1141                	addi	sp,sp,-16
20010e1c:	c422                	sw	s0,8(sp)
20010e1e:	c606                	sw	ra,12(sp)
20010e20:	00000797          	auipc	a5,0x0
20010e24:	15078793          	addi	a5,a5,336 # 20010f70 <__call_exitprocs>
20010e28:	842a                	mv	s0,a0
20010e2a:	c399                	beqz	a5,20010e30 <exit+0x16>
20010e2c:	4581                	li	a1,0
20010e2e:	2289                	jal	20010f70 <__call_exitprocs>
20010e30:	5ffef797          	auipc	a5,0x5ffef
20010e34:	65878793          	addi	a5,a5,1624 # 80000488 <_global_impure_ptr>
20010e38:	4388                	lw	a0,0(a5)
20010e3a:	551c                	lw	a5,40(a0)
20010e3c:	c391                	beqz	a5,20010e40 <exit+0x26>
20010e3e:	9782                	jalr	a5
20010e40:	8522                	mv	a0,s0
20010e42:	7ef020ef          	jal	ra,20013e30 <_exit>

20010e46 <__libc_fini_array>:
__libc_fini_array():
20010e46:	1141                	addi	sp,sp,-16
20010e48:	fffff797          	auipc	a5,0xfffff
20010e4c:	4a878793          	addi	a5,a5,1192 # 200102f0 <__fini_array_end>
20010e50:	c422                	sw	s0,8(sp)
20010e52:	fffff417          	auipc	s0,0xfffff
20010e56:	49e40413          	addi	s0,s0,1182 # 200102f0 <__fini_array_end>
20010e5a:	8c1d                	sub	s0,s0,a5
20010e5c:	c226                	sw	s1,4(sp)
20010e5e:	c606                	sw	ra,12(sp)
20010e60:	8409                	srai	s0,s0,0x2
20010e62:	84be                	mv	s1,a5
20010e64:	e411                	bnez	s0,20010e70 <__libc_fini_array+0x2a>
20010e66:	40b2                	lw	ra,12(sp)
20010e68:	4422                	lw	s0,8(sp)
20010e6a:	4492                	lw	s1,4(sp)
20010e6c:	0141                	addi	sp,sp,16
20010e6e:	8082                	ret
20010e70:	147d                	addi	s0,s0,-1
20010e72:	00241793          	slli	a5,s0,0x2
20010e76:	97a6                	add	a5,a5,s1
20010e78:	439c                	lw	a5,0(a5)
20010e7a:	9782                	jalr	a5
20010e7c:	b7e5                	j	20010e64 <__libc_fini_array+0x1e>

20010e7e <__libc_init_array>:
__libc_init_array():
20010e7e:	1141                	addi	sp,sp,-16
20010e80:	fffff797          	auipc	a5,0xfffff
20010e84:	46878793          	addi	a5,a5,1128 # 200102e8 <_metal_sifive_fe310_g000_pll_init_ptr>
20010e88:	c422                	sw	s0,8(sp)
20010e8a:	fffff417          	auipc	s0,0xfffff
20010e8e:	45e40413          	addi	s0,s0,1118 # 200102e8 <_metal_sifive_fe310_g000_pll_init_ptr>
20010e92:	8c1d                	sub	s0,s0,a5
20010e94:	c226                	sw	s1,4(sp)
20010e96:	c04a                	sw	s2,0(sp)
20010e98:	c606                	sw	ra,12(sp)
20010e9a:	8409                	srai	s0,s0,0x2
20010e9c:	4481                	li	s1,0
20010e9e:	893e                	mv	s2,a5
20010ea0:	02849663          	bne	s1,s0,20010ecc <__libc_init_array+0x4e>
20010ea4:	fffff797          	auipc	a5,0xfffff
20010ea8:	44478793          	addi	a5,a5,1092 # 200102e8 <_metal_sifive_fe310_g000_pll_init_ptr>
20010eac:	fffff417          	auipc	s0,0xfffff
20010eb0:	43c40413          	addi	s0,s0,1084 # 200102e8 <_metal_sifive_fe310_g000_pll_init_ptr>
20010eb4:	8c1d                	sub	s0,s0,a5
20010eb6:	8409                	srai	s0,s0,0x2
20010eb8:	4481                	li	s1,0
20010eba:	893e                	mv	s2,a5
20010ebc:	00849f63          	bne	s1,s0,20010eda <__libc_init_array+0x5c>
20010ec0:	40b2                	lw	ra,12(sp)
20010ec2:	4422                	lw	s0,8(sp)
20010ec4:	4492                	lw	s1,4(sp)
20010ec6:	4902                	lw	s2,0(sp)
20010ec8:	0141                	addi	sp,sp,16
20010eca:	8082                	ret
20010ecc:	00249793          	slli	a5,s1,0x2
20010ed0:	97ca                	add	a5,a5,s2
20010ed2:	439c                	lw	a5,0(a5)
20010ed4:	0485                	addi	s1,s1,1
20010ed6:	9782                	jalr	a5
20010ed8:	b7e1                	j	20010ea0 <__libc_init_array+0x22>
20010eda:	00249793          	slli	a5,s1,0x2
20010ede:	97ca                	add	a5,a5,s2
20010ee0:	439c                	lw	a5,0(a5)
20010ee2:	0485                	addi	s1,s1,1
20010ee4:	9782                	jalr	a5
20010ee6:	bfd9                	j	20010ebc <__libc_init_array+0x3e>

20010ee8 <__register_exitproc>:
__register_exitproc():
20010ee8:	5ffef797          	auipc	a5,0x5ffef
20010eec:	5e078793          	addi	a5,a5,1504 # 800004c8 <__tls_base>
20010ef0:	439c                	lw	a5,0(a5)
20010ef2:	8e2a                	mv	t3,a0
20010ef4:	e39d                	bnez	a5,20010f1a <__register_exitproc+0x32>
20010ef6:	5ffef717          	auipc	a4,0x5ffef
20010efa:	5de70713          	addi	a4,a4,1502 # 800004d4 <_global_atexit0>
20010efe:	5ffef797          	auipc	a5,0x5ffef
20010f02:	5ce7a523          	sw	a4,1482(a5) # 800004c8 <__tls_base>
20010f06:	dffef517          	auipc	a0,0xdffef
20010f0a:	0fa50513          	addi	a0,a0,250 # 0 <__metal_boot_hart>
20010f0e:	87ba                	mv	a5,a4
20010f10:	c509                	beqz	a0,20010f1a <__register_exitproc+0x32>
20010f12:	411c                	lw	a5,0(a0)
20010f14:	8cf1aa23          	sw	a5,-1836(gp) # 8000055c <_global_atexit0+0x88>
20010f18:	87ba                	mv	a5,a4
20010f1a:	43d8                	lw	a4,4(a5)
20010f1c:	487d                	li	a6,31
20010f1e:	557d                	li	a0,-1
20010f20:	04e84763          	blt	a6,a4,20010f6e <__register_exitproc+0x86>
20010f24:	020e0e63          	beqz	t3,20010f60 <__register_exitproc+0x78>
20010f28:	0887a803          	lw	a6,136(a5)
20010f2c:	04080163          	beqz	a6,20010f6e <__register_exitproc+0x86>
20010f30:	00271893          	slli	a7,a4,0x2
20010f34:	98c2                	add	a7,a7,a6
20010f36:	00c8a023          	sw	a2,0(a7)
20010f3a:	10082303          	lw	t1,256(a6)
20010f3e:	4605                	li	a2,1
20010f40:	00e61633          	sll	a2,a2,a4
20010f44:	00c36333          	or	t1,t1,a2
20010f48:	10682023          	sw	t1,256(a6)
20010f4c:	08d8a023          	sw	a3,128(a7)
20010f50:	4689                	li	a3,2
20010f52:	00de1763          	bne	t3,a3,20010f60 <__register_exitproc+0x78>
20010f56:	10482683          	lw	a3,260(a6)
20010f5a:	8e55                	or	a2,a2,a3
20010f5c:	10c82223          	sw	a2,260(a6)
20010f60:	00170693          	addi	a3,a4,1
20010f64:	070a                	slli	a4,a4,0x2
20010f66:	c3d4                	sw	a3,4(a5)
20010f68:	97ba                	add	a5,a5,a4
20010f6a:	c78c                	sw	a1,8(a5)
20010f6c:	4501                	li	a0,0
20010f6e:	8082                	ret

20010f70 <__call_exitprocs>:
__call_exitprocs():
20010f70:	7179                	addi	sp,sp,-48
20010f72:	cc52                	sw	s4,24(sp)
20010f74:	ca56                	sw	s5,20(sp)
20010f76:	c85a                	sw	s6,16(sp)
20010f78:	c65e                	sw	s7,12(sp)
20010f7a:	d606                	sw	ra,44(sp)
20010f7c:	d422                	sw	s0,40(sp)
20010f7e:	d226                	sw	s1,36(sp)
20010f80:	d04a                	sw	s2,32(sp)
20010f82:	ce4e                	sw	s3,28(sp)
20010f84:	c462                	sw	s8,8(sp)
20010f86:	8b2a                	mv	s6,a0
20010f88:	8a2e                	mv	s4,a1
20010f8a:	5ffefa97          	auipc	s5,0x5ffef
20010f8e:	53ea8a93          	addi	s5,s5,1342 # 800004c8 <__tls_base>
20010f92:	4b85                	li	s7,1
20010f94:	000aa403          	lw	s0,0(s5)
20010f98:	c811                	beqz	s0,20010fac <__call_exitprocs+0x3c>
20010f9a:	4044                	lw	s1,4(s0)
20010f9c:	08842983          	lw	s3,136(s0)
20010fa0:	fff48913          	addi	s2,s1,-1
20010fa4:	048a                	slli	s1,s1,0x2
20010fa6:	94a2                	add	s1,s1,s0
20010fa8:	00095e63          	bgez	s2,20010fc4 <__call_exitprocs+0x54>
20010fac:	50b2                	lw	ra,44(sp)
20010fae:	5422                	lw	s0,40(sp)
20010fb0:	5492                	lw	s1,36(sp)
20010fb2:	5902                	lw	s2,32(sp)
20010fb4:	49f2                	lw	s3,28(sp)
20010fb6:	4a62                	lw	s4,24(sp)
20010fb8:	4ad2                	lw	s5,20(sp)
20010fba:	4b42                	lw	s6,16(sp)
20010fbc:	4bb2                	lw	s7,12(sp)
20010fbe:	4c22                	lw	s8,8(sp)
20010fc0:	6145                	addi	sp,sp,48
20010fc2:	8082                	ret
20010fc4:	000a0e63          	beqz	s4,20010fe0 <__call_exitprocs+0x70>
20010fc8:	00099563          	bnez	s3,20010fd2 <__call_exitprocs+0x62>
20010fcc:	197d                	addi	s2,s2,-1
20010fce:	14f1                	addi	s1,s1,-4
20010fd0:	bfe1                	j	20010fa8 <__call_exitprocs+0x38>
20010fd2:	00291793          	slli	a5,s2,0x2
20010fd6:	97ce                	add	a5,a5,s3
20010fd8:	0807a783          	lw	a5,128(a5)
20010fdc:	ff4798e3          	bne	a5,s4,20010fcc <__call_exitprocs+0x5c>
20010fe0:	4058                	lw	a4,4(s0)
20010fe2:	40dc                	lw	a5,4(s1)
20010fe4:	177d                	addi	a4,a4,-1
20010fe6:	03271863          	bne	a4,s2,20011016 <__call_exitprocs+0xa6>
20010fea:	01242223          	sw	s2,4(s0)
20010fee:	dff9                	beqz	a5,20010fcc <__call_exitprocs+0x5c>
20010ff0:	00442c03          	lw	s8,4(s0)
20010ff4:	00098863          	beqz	s3,20011004 <__call_exitprocs+0x94>
20010ff8:	1009a683          	lw	a3,256(s3)
20010ffc:	012b9733          	sll	a4,s7,s2
20011000:	8ef9                	and	a3,a3,a4
20011002:	ee89                	bnez	a3,2001101c <__call_exitprocs+0xac>
20011004:	9782                	jalr	a5
20011006:	4058                	lw	a4,4(s0)
20011008:	000aa783          	lw	a5,0(s5)
2001100c:	f98714e3          	bne	a4,s8,20010f94 <__call_exitprocs+0x24>
20011010:	faf40ee3          	beq	s0,a5,20010fcc <__call_exitprocs+0x5c>
20011014:	b741                	j	20010f94 <__call_exitprocs+0x24>
20011016:	0004a223          	sw	zero,4(s1)
2001101a:	bfd1                	j	20010fee <__call_exitprocs+0x7e>
2001101c:	00291693          	slli	a3,s2,0x2
20011020:	96ce                	add	a3,a3,s3
20011022:	428c                	lw	a1,0(a3)
20011024:	1049a683          	lw	a3,260(s3)
20011028:	8f75                	and	a4,a4,a3
2001102a:	e701                	bnez	a4,20011032 <__call_exitprocs+0xc2>
2001102c:	855a                	mv	a0,s6
2001102e:	9782                	jalr	a5
20011030:	bfd9                	j	20011006 <__call_exitprocs+0x96>
20011032:	852e                	mv	a0,a1
20011034:	9782                	jalr	a5
20011036:	bfc1                	j	20011006 <__call_exitprocs+0x96>

20011038 <metal_init>:
metal_init():
/home/letsgrillbananas/wsFreedomStudio/embedded-software/freedom-metal/src/init.c:17
extern metal_constructor_t metal_constructors_start;
extern metal_constructor_t metal_constructors_end;
extern metal_destructor_t metal_destructors_start;
extern metal_destructor_t metal_destructors_end;

void metal_init(void) {
20011038:	1101                	addi	sp,sp,-32
2001103a:	ce06                	sw	ra,28(sp)
2001103c:	cc22                	sw	s0,24(sp)
2001103e:	1000                	addi	s0,sp,32
/home/letsgrillbananas/wsFreedomStudio/embedded-software/freedom-metal/src/init.c:20
    /* Make sure the constructors only run once */
    static int init_done = 0;
    if (init_done) {
20011040:	800007b7          	lui	a5,0x80000
20011044:	4cc7a783          	lw	a5,1228(a5) # 800004cc <__global_pointer$+0xfffff844>
20011048:	efa9                	bnez	a5,200110a2 <metal_init+0x6a>
/home/letsgrillbananas/wsFreedomStudio/embedded-software/freedom-metal/src/init.c:23
        return;
    }
    init_done = 1;
2001104a:	800007b7          	lui	a5,0x80000
2001104e:	4705                	li	a4,1
20011050:	4ce7a623          	sw	a4,1228(a5) # 800004cc <__global_pointer$+0xfffff844>
/home/letsgrillbananas/wsFreedomStudio/embedded-software/freedom-metal/src/init.c:25

    if (&metal_constructors_end <= &metal_constructors_start) {
20011054:	200107b7          	lui	a5,0x20010
20011058:	2f078713          	addi	a4,a5,752 # 200102f0 <__fini_array_end>
2001105c:	200107b7          	lui	a5,0x20010
20011060:	2e878793          	addi	a5,a5,744 # 200102e8 <_metal_sifive_fe310_g000_pll_init_ptr>
20011064:	04e7f163          	bgeu	a5,a4,200110a6 <metal_init+0x6e>
/home/letsgrillbananas/wsFreedomStudio/embedded-software/freedom-metal/src/init.c:29
        return;
    }

    metal_constructor_t *funcptr = &metal_constructors_start;
20011068:	200107b7          	lui	a5,0x20010
2001106c:	2e878793          	addi	a5,a5,744 # 200102e8 <_metal_sifive_fe310_g000_pll_init_ptr>
20011070:	fef42623          	sw	a5,-20(s0)
/home/letsgrillbananas/wsFreedomStudio/embedded-software/freedom-metal/src/init.c:30
    while (funcptr != &metal_constructors_end) {
20011074:	a831                	j	20011090 <metal_init+0x58>
/home/letsgrillbananas/wsFreedomStudio/embedded-software/freedom-metal/src/init.c:31
        metal_constructor_t func = *funcptr;
20011076:	fec42783          	lw	a5,-20(s0)
2001107a:	439c                	lw	a5,0(a5)
2001107c:	fef42423          	sw	a5,-24(s0)
/home/letsgrillbananas/wsFreedomStudio/embedded-software/freedom-metal/src/init.c:33

        func();
20011080:	fe842783          	lw	a5,-24(s0)
20011084:	9782                	jalr	a5
/home/letsgrillbananas/wsFreedomStudio/embedded-software/freedom-metal/src/init.c:35

        funcptr += 1;
20011086:	fec42783          	lw	a5,-20(s0)
2001108a:	0791                	addi	a5,a5,4
2001108c:	fef42623          	sw	a5,-20(s0)
/home/letsgrillbananas/wsFreedomStudio/embedded-software/freedom-metal/src/init.c:30
    while (funcptr != &metal_constructors_end) {
20011090:	fec42703          	lw	a4,-20(s0)
20011094:	200107b7          	lui	a5,0x20010
20011098:	2f078793          	addi	a5,a5,752 # 200102f0 <__fini_array_end>
2001109c:	fcf71de3          	bne	a4,a5,20011076 <metal_init+0x3e>
200110a0:	a021                	j	200110a8 <metal_init+0x70>
/home/letsgrillbananas/wsFreedomStudio/embedded-software/freedom-metal/src/init.c:21
        return;
200110a2:	0001                	nop
200110a4:	a011                	j	200110a8 <metal_init+0x70>
/home/letsgrillbananas/wsFreedomStudio/embedded-software/freedom-metal/src/init.c:26
        return;
200110a6:	0001                	nop
/home/letsgrillbananas/wsFreedomStudio/embedded-software/freedom-metal/src/init.c:37
    }
}
200110a8:	40f2                	lw	ra,28(sp)
200110aa:	4462                	lw	s0,24(sp)
200110ac:	6105                	addi	sp,sp,32
200110ae:	8082                	ret

200110b0 <metal_fini>:
metal_fini():
/home/letsgrillbananas/wsFreedomStudio/embedded-software/freedom-metal/src/init.c:39

void metal_fini(void) {
200110b0:	1101                	addi	sp,sp,-32
200110b2:	ce06                	sw	ra,28(sp)
200110b4:	cc22                	sw	s0,24(sp)
200110b6:	1000                	addi	s0,sp,32
/home/letsgrillbananas/wsFreedomStudio/embedded-software/freedom-metal/src/init.c:42
    /* Make sure the destructors only run once */
    static int fini_done = 0;
    if (fini_done) {
200110b8:	800007b7          	lui	a5,0x80000
200110bc:	4d07a783          	lw	a5,1232(a5) # 800004d0 <__global_pointer$+0xfffff848>
200110c0:	efa9                	bnez	a5,2001111a <metal_fini+0x6a>
/home/letsgrillbananas/wsFreedomStudio/embedded-software/freedom-metal/src/init.c:45
        return;
    }
    fini_done = 1;
200110c2:	800007b7          	lui	a5,0x80000
200110c6:	4705                	li	a4,1
200110c8:	4ce7a823          	sw	a4,1232(a5) # 800004d0 <__global_pointer$+0xfffff848>
/home/letsgrillbananas/wsFreedomStudio/embedded-software/freedom-metal/src/init.c:47

    if (&metal_destructors_end <= &metal_destructors_start) {
200110cc:	200107b7          	lui	a5,0x20010
200110d0:	2f078713          	addi	a4,a5,752 # 200102f0 <__fini_array_end>
200110d4:	200107b7          	lui	a5,0x20010
200110d8:	2f078793          	addi	a5,a5,752 # 200102f0 <__fini_array_end>
200110dc:	04e7f163          	bgeu	a5,a4,2001111e <metal_fini+0x6e>
/home/letsgrillbananas/wsFreedomStudio/embedded-software/freedom-metal/src/init.c:51
        return;
    }

    metal_destructor_t *funcptr = &metal_destructors_start;
200110e0:	200107b7          	lui	a5,0x20010
200110e4:	2f078793          	addi	a5,a5,752 # 200102f0 <__fini_array_end>
200110e8:	fef42623          	sw	a5,-20(s0)
/home/letsgrillbananas/wsFreedomStudio/embedded-software/freedom-metal/src/init.c:52
    while (funcptr != &metal_destructors_end) {
200110ec:	a831                	j	20011108 <metal_fini+0x58>
/home/letsgrillbananas/wsFreedomStudio/embedded-software/freedom-metal/src/init.c:53
        metal_destructor_t func = *funcptr;
200110ee:	fec42783          	lw	a5,-20(s0)
200110f2:	439c                	lw	a5,0(a5)
200110f4:	fef42423          	sw	a5,-24(s0)
/home/letsgrillbananas/wsFreedomStudio/embedded-software/freedom-metal/src/init.c:55

        func();
200110f8:	fe842783          	lw	a5,-24(s0)
200110fc:	9782                	jalr	a5
/home/letsgrillbananas/wsFreedomStudio/embedded-software/freedom-metal/src/init.c:57

        funcptr += 1;
200110fe:	fec42783          	lw	a5,-20(s0)
20011102:	0791                	addi	a5,a5,4
20011104:	fef42623          	sw	a5,-20(s0)
/home/letsgrillbananas/wsFreedomStudio/embedded-software/freedom-metal/src/init.c:52
    while (funcptr != &metal_destructors_end) {
20011108:	fec42703          	lw	a4,-20(s0)
2001110c:	200107b7          	lui	a5,0x20010
20011110:	2f078793          	addi	a5,a5,752 # 200102f0 <__fini_array_end>
20011114:	fcf71de3          	bne	a4,a5,200110ee <metal_fini+0x3e>
20011118:	a021                	j	20011120 <metal_fini+0x70>
/home/letsgrillbananas/wsFreedomStudio/embedded-software/freedom-metal/src/init.c:43
        return;
2001111a:	0001                	nop
2001111c:	a011                	j	20011120 <metal_fini+0x70>
/home/letsgrillbananas/wsFreedomStudio/embedded-software/freedom-metal/src/init.c:48
        return;
2001111e:	0001                	nop
/home/letsgrillbananas/wsFreedomStudio/embedded-software/freedom-metal/src/init.c:59
    }
}
20011120:	40f2                	lw	ra,28(sp)
20011122:	4462                	lw	s0,24(sp)
20011124:	6105                	addi	sp,sp,32
20011126:	8082                	ret

20011128 <metal_init_run>:
metal_init_run():
/home/letsgrillbananas/wsFreedomStudio/embedded-software/freedom-metal/src/init.c:69
 * in the case that users don't want the metal constructors or
 * destructors to run.
 */

void metal_init_run(void) __attribute__((weak));
void metal_init_run(void) { metal_init(); }
20011128:	1141                	addi	sp,sp,-16
2001112a:	c606                	sw	ra,12(sp)
2001112c:	c422                	sw	s0,8(sp)
2001112e:	0800                	addi	s0,sp,16
20011130:	3721                	jal	20011038 <metal_init>
20011132:	0001                	nop
20011134:	40b2                	lw	ra,12(sp)
20011136:	4422                	lw	s0,8(sp)
20011138:	0141                	addi	sp,sp,16
2001113a:	8082                	ret

2001113c <metal_fini_run>:
metal_fini_run():
/home/letsgrillbananas/wsFreedomStudio/embedded-software/freedom-metal/src/init.c:72

void metal_fini_run(void) __attribute__((weak));
void metal_fini_run(void) { metal_fini(); }
2001113c:	1141                	addi	sp,sp,-16
2001113e:	c606                	sw	ra,12(sp)
20011140:	c422                	sw	s0,8(sp)
20011142:	0800                	addi	s0,sp,16
20011144:	37b5                	jal	200110b0 <metal_fini>
20011146:	0001                	nop
20011148:	40b2                	lw	ra,12(sp)
2001114a:	4422                	lw	s0,8(sp)
2001114c:	0141                	addi	sp,sp,16
2001114e:	8082                	ret

20011150 <__metal_driver_sifive_clint0_control_base>:
__metal_driver_sifive_clint0_control_base():
/home/letsgrillbananas/wsFreedomStudio/embedded-software/bsp/build/debug/./metal/machine.h:233
/* --------------------- fixed_factor_clock ------------ */


/* --------------------- sifive_clint0 ------------ */
static __inline__ unsigned long __metal_driver_sifive_clint0_control_base(struct metal_interrupt *controller)
{
20011150:	1101                	addi	sp,sp,-32
20011152:	ce22                	sw	s0,28(sp)
20011154:	1000                	addi	s0,sp,32
20011156:	fea42623          	sw	a0,-20(s0)
/home/letsgrillbananas/wsFreedomStudio/embedded-software/bsp/build/debug/./metal/machine.h:234
	if ((uintptr_t)controller == (uintptr_t)&__metal_dt_clint_2000000) {
2001115a:	fec42703          	lw	a4,-20(s0)
2001115e:	800007b7          	lui	a5,0x80000
20011162:	49078793          	addi	a5,a5,1168 # 80000490 <__global_pointer$+0xfffff808>
20011166:	00f71563          	bne	a4,a5,20011170 <__metal_driver_sifive_clint0_control_base+0x20>
/home/letsgrillbananas/wsFreedomStudio/embedded-software/bsp/build/debug/./metal/machine.h:235
		return METAL_RISCV_CLINT0_2000000_BASE_ADDRESS;
2001116a:	020007b7          	lui	a5,0x2000
2001116e:	a011                	j	20011172 <__metal_driver_sifive_clint0_control_base+0x22>
/home/letsgrillbananas/wsFreedomStudio/embedded-software/bsp/build/debug/./metal/machine.h:238
	}
	else {
		return 0;
20011170:	4781                	li	a5,0
/home/letsgrillbananas/wsFreedomStudio/embedded-software/bsp/build/debug/./metal/machine.h:240
	}
}
20011172:	853e                	mv	a0,a5
20011174:	4472                	lw	s0,28(sp)
20011176:	6105                	addi	sp,sp,32
20011178:	8082                	ret

2001117a <__metal_driver_sifive_clint0_num_interrupts>:
__metal_driver_sifive_clint0_num_interrupts():
/home/letsgrillbananas/wsFreedomStudio/embedded-software/bsp/build/debug/./metal/machine.h:253
		return 0;
	}
}

static __inline__ int __metal_driver_sifive_clint0_num_interrupts(struct metal_interrupt *controller)
{
2001117a:	1101                	addi	sp,sp,-32
2001117c:	ce22                	sw	s0,28(sp)
2001117e:	1000                	addi	s0,sp,32
20011180:	fea42623          	sw	a0,-20(s0)
/home/letsgrillbananas/wsFreedomStudio/embedded-software/bsp/build/debug/./metal/machine.h:254
	if ((uintptr_t)controller == (uintptr_t)&__metal_dt_clint_2000000) {
20011184:	fec42703          	lw	a4,-20(s0)
20011188:	800007b7          	lui	a5,0x80000
2001118c:	49078793          	addi	a5,a5,1168 # 80000490 <__global_pointer$+0xfffff808>
20011190:	00f71463          	bne	a4,a5,20011198 <__metal_driver_sifive_clint0_num_interrupts+0x1e>
/home/letsgrillbananas/wsFreedomStudio/embedded-software/bsp/build/debug/./metal/machine.h:255
		return METAL_MAX_CLINT_INTERRUPTS;
20011194:	4789                	li	a5,2
20011196:	a011                	j	2001119a <__metal_driver_sifive_clint0_num_interrupts+0x20>
/home/letsgrillbananas/wsFreedomStudio/embedded-software/bsp/build/debug/./metal/machine.h:258
	}
	else {
		return 0;
20011198:	4781                	li	a5,0
/home/letsgrillbananas/wsFreedomStudio/embedded-software/bsp/build/debug/./metal/machine.h:260
	}
}
2001119a:	853e                	mv	a0,a5
2001119c:	4472                	lw	s0,28(sp)
2001119e:	6105                	addi	sp,sp,32
200111a0:	8082                	ret

200111a2 <__metal_driver_sifive_clint0_interrupt_parents>:
__metal_driver_sifive_clint0_interrupt_parents():
/home/letsgrillbananas/wsFreedomStudio/embedded-software/bsp/build/debug/./metal/machine.h:263

static __inline__ struct metal_interrupt * __metal_driver_sifive_clint0_interrupt_parents(struct metal_interrupt *controller, int idx)
{
200111a2:	1101                	addi	sp,sp,-32
200111a4:	ce22                	sw	s0,28(sp)
200111a6:	1000                	addi	s0,sp,32
200111a8:	fea42623          	sw	a0,-20(s0)
200111ac:	feb42423          	sw	a1,-24(s0)
/home/letsgrillbananas/wsFreedomStudio/embedded-software/bsp/build/debug/./metal/machine.h:264
	if (idx == 0) {
200111b0:	fe842783          	lw	a5,-24(s0)
200111b4:	e791                	bnez	a5,200111c0 <__metal_driver_sifive_clint0_interrupt_parents+0x1e>
/home/letsgrillbananas/wsFreedomStudio/embedded-software/bsp/build/debug/./metal/machine.h:265
		return (struct metal_interrupt *)&__metal_dt_cpu_0_interrupt_controller.controller;
200111b6:	800007b7          	lui	a5,0x80000
200111ba:	09078793          	addi	a5,a5,144 # 80000090 <__global_pointer$+0xfffff408>
200111be:	a821                	j	200111d6 <__metal_driver_sifive_clint0_interrupt_parents+0x34>
/home/letsgrillbananas/wsFreedomStudio/embedded-software/bsp/build/debug/./metal/machine.h:267
	}
	else if (idx == 1) {
200111c0:	fe842703          	lw	a4,-24(s0)
200111c4:	4785                	li	a5,1
200111c6:	00f71763          	bne	a4,a5,200111d4 <__metal_driver_sifive_clint0_interrupt_parents+0x32>
/home/letsgrillbananas/wsFreedomStudio/embedded-software/bsp/build/debug/./metal/machine.h:268
		return (struct metal_interrupt *)&__metal_dt_cpu_0_interrupt_controller.controller;
200111ca:	800007b7          	lui	a5,0x80000
200111ce:	09078793          	addi	a5,a5,144 # 80000090 <__global_pointer$+0xfffff408>
200111d2:	a011                	j	200111d6 <__metal_driver_sifive_clint0_interrupt_parents+0x34>
/home/letsgrillbananas/wsFreedomStudio/embedded-software/bsp/build/debug/./metal/machine.h:271
	}
	else {
		return NULL;
200111d4:	4781                	li	a5,0
/home/letsgrillbananas/wsFreedomStudio/embedded-software/bsp/build/debug/./metal/machine.h:273
	}
}
200111d6:	853e                	mv	a0,a5
200111d8:	4472                	lw	s0,28(sp)
200111da:	6105                	addi	sp,sp,32
200111dc:	8082                	ret

200111de <__metal_driver_sifive_clint0_interrupt_lines>:
__metal_driver_sifive_clint0_interrupt_lines():
/home/letsgrillbananas/wsFreedomStudio/embedded-software/bsp/build/debug/./metal/machine.h:276

static __inline__ int __metal_driver_sifive_clint0_interrupt_lines(struct metal_interrupt *controller, int idx)
{
200111de:	1101                	addi	sp,sp,-32
200111e0:	ce22                	sw	s0,28(sp)
200111e2:	1000                	addi	s0,sp,32
200111e4:	fea42623          	sw	a0,-20(s0)
200111e8:	feb42423          	sw	a1,-24(s0)
/home/letsgrillbananas/wsFreedomStudio/embedded-software/bsp/build/debug/./metal/machine.h:277
	if (idx == 0) {
200111ec:	fe842783          	lw	a5,-24(s0)
200111f0:	e399                	bnez	a5,200111f6 <__metal_driver_sifive_clint0_interrupt_lines+0x18>
/home/letsgrillbananas/wsFreedomStudio/embedded-software/bsp/build/debug/./metal/machine.h:278
		return 3;
200111f2:	478d                	li	a5,3
200111f4:	a809                	j	20011206 <__metal_driver_sifive_clint0_interrupt_lines+0x28>
/home/letsgrillbananas/wsFreedomStudio/embedded-software/bsp/build/debug/./metal/machine.h:280
	}
	else if (idx == 1) {
200111f6:	fe842703          	lw	a4,-24(s0)
200111fa:	4785                	li	a5,1
200111fc:	00f71463          	bne	a4,a5,20011204 <__metal_driver_sifive_clint0_interrupt_lines+0x26>
/home/letsgrillbananas/wsFreedomStudio/embedded-software/bsp/build/debug/./metal/machine.h:281
		return 7;
20011200:	479d                	li	a5,7
20011202:	a011                	j	20011206 <__metal_driver_sifive_clint0_interrupt_lines+0x28>
/home/letsgrillbananas/wsFreedomStudio/embedded-software/bsp/build/debug/./metal/machine.h:284
	}
	else {
		return 0;
20011204:	4781                	li	a5,0
/home/letsgrillbananas/wsFreedomStudio/embedded-software/bsp/build/debug/./metal/machine.h:286
	}
}
20011206:	853e                	mv	a0,a5
20011208:	4472                	lw	s0,28(sp)
2001120a:	6105                	addi	sp,sp,32
2001120c:	8082                	ret

2001120e <__metal_clint0_mtime_get>:
__metal_clint0_mtime_get():
/home/letsgrillbananas/wsFreedomStudio/embedded-software/freedom-metal/src/drivers/riscv_clint0.c:14
#include <metal/drivers/riscv_clint0.h>
#include <metal/io.h>
#include <metal/machine.h>

unsigned long long
__metal_clint0_mtime_get(struct __metal_driver_riscv_clint0 *clint) {
2001120e:	715d                	addi	sp,sp,-80
20011210:	c686                	sw	ra,76(sp)
20011212:	c4a2                	sw	s0,72(sp)
20011214:	c2ca                	sw	s2,68(sp)
20011216:	c0ce                	sw	s3,64(sp)
20011218:	de52                	sw	s4,60(sp)
2001121a:	dc56                	sw	s5,56(sp)
2001121c:	da5a                	sw	s6,52(sp)
2001121e:	d85e                	sw	s7,48(sp)
20011220:	d662                	sw	s8,44(sp)
20011222:	d466                	sw	s9,40(sp)
20011224:	0880                	addi	s0,sp,80
20011226:	faa42e23          	sw	a0,-68(s0)
/home/letsgrillbananas/wsFreedomStudio/embedded-software/freedom-metal/src/drivers/riscv_clint0.c:17
    __metal_io_u32 lo, hi;
    unsigned long control_base =
        __metal_driver_sifive_clint0_control_base(&clint->controller);
2001122a:	fbc42783          	lw	a5,-68(s0)
2001122e:	853e                	mv	a0,a5
20011230:	3705                	jal	20011150 <__metal_driver_sifive_clint0_control_base>
20011232:	fca42623          	sw	a0,-52(s0)
/home/letsgrillbananas/wsFreedomStudio/embedded-software/freedom-metal/src/drivers/riscv_clint0.c:21 (discriminator 1)

    /* Guard against rollover when reading */
    do {
        hi = __METAL_ACCESS_ONCE(
20011236:	fcc42703          	lw	a4,-52(s0)
2001123a:	67b1                	lui	a5,0xc
2001123c:	17f1                	addi	a5,a5,-4
2001123e:	97ba                	add	a5,a5,a4
20011240:	439c                	lw	a5,0(a5)
20011242:	fcf42423          	sw	a5,-56(s0)
/home/letsgrillbananas/wsFreedomStudio/embedded-software/freedom-metal/src/drivers/riscv_clint0.c:23 (discriminator 1)
            (__metal_io_u32 *)(control_base + METAL_RISCV_CLINT0_MTIME + 4));
        lo = __METAL_ACCESS_ONCE(
20011246:	fcc42703          	lw	a4,-52(s0)
2001124a:	67b1                	lui	a5,0xc
2001124c:	17e1                	addi	a5,a5,-8
2001124e:	97ba                	add	a5,a5,a4
20011250:	439c                	lw	a5,0(a5)
20011252:	fcf42223          	sw	a5,-60(s0)
/home/letsgrillbananas/wsFreedomStudio/embedded-software/freedom-metal/src/drivers/riscv_clint0.c:25 (discriminator 1)
            (__metal_io_u32 *)(control_base + METAL_RISCV_CLINT0_MTIME));
    } while (__METAL_ACCESS_ONCE((__metal_io_u32 *)(control_base +
20011256:	fcc42703          	lw	a4,-52(s0)
2001125a:	67b1                	lui	a5,0xc
2001125c:	17f1                	addi	a5,a5,-4
2001125e:	97ba                	add	a5,a5,a4
20011260:	439c                	lw	a5,0(a5)
20011262:	fc842703          	lw	a4,-56(s0)
20011266:	fcf718e3          	bne	a4,a5,20011236 <__metal_clint0_mtime_get+0x28>
/home/letsgrillbananas/wsFreedomStudio/embedded-software/freedom-metal/src/drivers/riscv_clint0.c:29
                                                    METAL_RISCV_CLINT0_MTIME +
                                                    4)) != hi);

    return (((unsigned long long)hi) << 32) | lo;
2001126a:	fc842783          	lw	a5,-56(s0)
2001126e:	8c3e                	mv	s8,a5
20011270:	4c81                	li	s9,0
20011272:	000c1993          	slli	s3,s8,0x0
20011276:	4901                	li	s2,0
20011278:	fc442783          	lw	a5,-60(s0)
2001127c:	8a3e                	mv	s4,a5
2001127e:	4a81                	li	s5,0
20011280:	01496b33          	or	s6,s2,s4
20011284:	0159ebb3          	or	s7,s3,s5
20011288:	87da                	mv	a5,s6
2001128a:	885e                	mv	a6,s7
/home/letsgrillbananas/wsFreedomStudio/embedded-software/freedom-metal/src/drivers/riscv_clint0.c:30
}
2001128c:	853e                	mv	a0,a5
2001128e:	85c2                	mv	a1,a6
20011290:	40b6                	lw	ra,76(sp)
20011292:	4426                	lw	s0,72(sp)
20011294:	4916                	lw	s2,68(sp)
20011296:	4986                	lw	s3,64(sp)
20011298:	5a72                	lw	s4,60(sp)
2001129a:	5ae2                	lw	s5,56(sp)
2001129c:	5b52                	lw	s6,52(sp)
2001129e:	5bc2                	lw	s7,48(sp)
200112a0:	5c32                	lw	s8,44(sp)
200112a2:	5ca2                	lw	s9,40(sp)
200112a4:	6161                	addi	sp,sp,80
200112a6:	8082                	ret

200112a8 <__metal_driver_riscv_clint0_mtimecmp_set>:
__metal_driver_riscv_clint0_mtimecmp_set():
/home/letsgrillbananas/wsFreedomStudio/embedded-software/freedom-metal/src/drivers/riscv_clint0.c:34

int __metal_driver_riscv_clint0_mtimecmp_set(struct metal_interrupt *controller,
                                             int hartid,
                                             unsigned long long time) {
200112a8:	7179                	addi	sp,sp,-48
200112aa:	d606                	sw	ra,44(sp)
200112ac:	d422                	sw	s0,40(sp)
200112ae:	d24a                	sw	s2,36(sp)
200112b0:	d04e                	sw	s3,32(sp)
200112b2:	1800                	addi	s0,sp,48
200112b4:	fca42e23          	sw	a0,-36(s0)
200112b8:	fcb42c23          	sw	a1,-40(s0)
200112bc:	fcc42823          	sw	a2,-48(s0)
200112c0:	fcd42a23          	sw	a3,-44(s0)
/home/letsgrillbananas/wsFreedomStudio/embedded-software/freedom-metal/src/drivers/riscv_clint0.c:35
    struct __metal_driver_riscv_clint0 *clint =
200112c4:	fdc42783          	lw	a5,-36(s0)
200112c8:	fef42623          	sw	a5,-20(s0)
/home/letsgrillbananas/wsFreedomStudio/embedded-software/freedom-metal/src/drivers/riscv_clint0.c:38
        (struct __metal_driver_riscv_clint0 *)(controller);
    unsigned long control_base =
        __metal_driver_sifive_clint0_control_base(&clint->controller);
200112cc:	fec42783          	lw	a5,-20(s0)
200112d0:	853e                	mv	a0,a5
200112d2:	3dbd                	jal	20011150 <__metal_driver_sifive_clint0_control_base>
200112d4:	fea42423          	sw	a0,-24(s0)
/home/letsgrillbananas/wsFreedomStudio/embedded-software/freedom-metal/src/drivers/riscv_clint0.c:45
     * and are NOT internally latched for multiword transfers.
     * Need to be careful about sequencing to avoid triggering
     * spurious interrupts: For that set the high word to a max
     * value first.
     */
    __METAL_ACCESS_ONCE((__metal_io_u32 *)(control_base + (8 * hartid) +
200112d8:	fd842783          	lw	a5,-40(s0)
200112dc:	078e                	slli	a5,a5,0x3
200112de:	873e                	mv	a4,a5
200112e0:	fe842783          	lw	a5,-24(s0)
200112e4:	973e                	add	a4,a4,a5
200112e6:	6791                	lui	a5,0x4
200112e8:	0791                	addi	a5,a5,4
200112ea:	97ba                	add	a5,a5,a4
200112ec:	873e                	mv	a4,a5
/home/letsgrillbananas/wsFreedomStudio/embedded-software/freedom-metal/src/drivers/riscv_clint0.c:47
                                           METAL_RISCV_CLINT0_MTIMECMP_BASE +
                                           4)) = 0xFFFFFFFF;
200112ee:	57fd                	li	a5,-1
200112f0:	c31c                	sw	a5,0(a4)
/home/letsgrillbananas/wsFreedomStudio/embedded-software/freedom-metal/src/drivers/riscv_clint0.c:48
    __METAL_ACCESS_ONCE((__metal_io_u32 *)(control_base + (8 * hartid) +
200112f2:	fd842783          	lw	a5,-40(s0)
200112f6:	078e                	slli	a5,a5,0x3
200112f8:	873e                	mv	a4,a5
200112fa:	fe842783          	lw	a5,-24(s0)
200112fe:	973e                	add	a4,a4,a5
20011300:	6791                	lui	a5,0x4
20011302:	97ba                	add	a5,a5,a4
20011304:	873e                	mv	a4,a5
/home/letsgrillbananas/wsFreedomStudio/embedded-software/freedom-metal/src/drivers/riscv_clint0.c:50
                                           METAL_RISCV_CLINT0_MTIMECMP_BASE)) =
        (__metal_io_u32)time;
20011306:	fd042783          	lw	a5,-48(s0)
/home/letsgrillbananas/wsFreedomStudio/embedded-software/freedom-metal/src/drivers/riscv_clint0.c:49
                                           METAL_RISCV_CLINT0_MTIMECMP_BASE)) =
2001130a:	c31c                	sw	a5,0(a4)
/home/letsgrillbananas/wsFreedomStudio/embedded-software/freedom-metal/src/drivers/riscv_clint0.c:53
    __METAL_ACCESS_ONCE((__metal_io_u32 *)(control_base + (8 * hartid) +
                                           METAL_RISCV_CLINT0_MTIMECMP_BASE +
                                           4)) = (__metal_io_u32)(time >> 32);
2001130c:	fd442783          	lw	a5,-44(s0)
20011310:	0007d913          	srli	s2,a5,0x0
20011314:	4981                	li	s3,0
/home/letsgrillbananas/wsFreedomStudio/embedded-software/freedom-metal/src/drivers/riscv_clint0.c:51
    __METAL_ACCESS_ONCE((__metal_io_u32 *)(control_base + (8 * hartid) +
20011316:	fd842783          	lw	a5,-40(s0)
2001131a:	078e                	slli	a5,a5,0x3
2001131c:	873e                	mv	a4,a5
2001131e:	fe842783          	lw	a5,-24(s0)
20011322:	973e                	add	a4,a4,a5
20011324:	6791                	lui	a5,0x4
20011326:	0791                	addi	a5,a5,4
20011328:	97ba                	add	a5,a5,a4
/home/letsgrillbananas/wsFreedomStudio/embedded-software/freedom-metal/src/drivers/riscv_clint0.c:53
                                           4)) = (__metal_io_u32)(time >> 32);
2001132a:	874a                	mv	a4,s2
2001132c:	c398                	sw	a4,0(a5)
/home/letsgrillbananas/wsFreedomStudio/embedded-software/freedom-metal/src/drivers/riscv_clint0.c:54
    return 0;
2001132e:	4781                	li	a5,0
/home/letsgrillbananas/wsFreedomStudio/embedded-software/freedom-metal/src/drivers/riscv_clint0.c:55
}
20011330:	853e                	mv	a0,a5
20011332:	50b2                	lw	ra,44(sp)
20011334:	5422                	lw	s0,40(sp)
20011336:	5912                	lw	s2,36(sp)
20011338:	5982                	lw	s3,32(sp)
2001133a:	6145                	addi	sp,sp,48
2001133c:	8082                	ret

2001133e <_get_cpu_intc>:
_get_cpu_intc():
/home/letsgrillbananas/wsFreedomStudio/embedded-software/freedom-metal/src/drivers/riscv_clint0.c:57

static struct metal_interrupt *_get_cpu_intc() {
2001133e:	1101                	addi	sp,sp,-32
20011340:	ce06                	sw	ra,28(sp)
20011342:	cc22                	sw	s0,24(sp)
20011344:	1000                	addi	s0,sp,32
/home/letsgrillbananas/wsFreedomStudio/embedded-software/freedom-metal/src/drivers/riscv_clint0.c:58
    int hartid = 0;
20011346:	fe042623          	sw	zero,-20(s0)
/home/letsgrillbananas/wsFreedomStudio/embedded-software/freedom-metal/src/drivers/riscv_clint0.c:59
    __asm__ volatile("csrr %[hartid], mhartid"
2001134a:	f14027f3          	csrr	a5,mhartid
2001134e:	fef42623          	sw	a5,-20(s0)
/home/letsgrillbananas/wsFreedomStudio/embedded-software/freedom-metal/src/drivers/riscv_clint0.c:62
                     : [hartid] "=r"(hartid)::"memory");

    struct metal_cpu *cpu = metal_cpu_get(hartid);
20011352:	fec42783          	lw	a5,-20(s0)
20011356:	853e                	mv	a0,a5
20011358:	0e3020ef          	jal	ra,20013c3a <metal_cpu_get>
2001135c:	fea42423          	sw	a0,-24(s0)
/home/letsgrillbananas/wsFreedomStudio/embedded-software/freedom-metal/src/drivers/riscv_clint0.c:64

    return metal_cpu_interrupt_controller(cpu);
20011360:	fe842503          	lw	a0,-24(s0)
20011364:	0b1020ef          	jal	ra,20013c14 <metal_cpu_interrupt_controller>
20011368:	87aa                	mv	a5,a0
/home/letsgrillbananas/wsFreedomStudio/embedded-software/freedom-metal/src/drivers/riscv_clint0.c:65
}
2001136a:	853e                	mv	a0,a5
2001136c:	40f2                	lw	ra,28(sp)
2001136e:	4462                	lw	s0,24(sp)
20011370:	6105                	addi	sp,sp,32
20011372:	8082                	ret

20011374 <__metal_driver_riscv_clint0_init>:
__metal_driver_riscv_clint0_init():
/home/letsgrillbananas/wsFreedomStudio/embedded-software/freedom-metal/src/drivers/riscv_clint0.c:67

void __metal_driver_riscv_clint0_init(struct metal_interrupt *controller) {
20011374:	7139                	addi	sp,sp,-64
20011376:	de06                	sw	ra,60(sp)
20011378:	dc22                	sw	s0,56(sp)
2001137a:	0080                	addi	s0,sp,64
2001137c:	fca42623          	sw	a0,-52(s0)
/home/letsgrillbananas/wsFreedomStudio/embedded-software/freedom-metal/src/drivers/riscv_clint0.c:69
    int num_interrupts =
        __metal_driver_sifive_clint0_num_interrupts(controller);
20011380:	fcc42503          	lw	a0,-52(s0)
20011384:	3bdd                	jal	2001117a <__metal_driver_sifive_clint0_num_interrupts>
20011386:	fea42423          	sw	a0,-24(s0)
/home/letsgrillbananas/wsFreedomStudio/embedded-software/freedom-metal/src/drivers/riscv_clint0.c:70
    struct __metal_driver_riscv_clint0 *clint =
2001138a:	fcc42783          	lw	a5,-52(s0)
2001138e:	fef42223          	sw	a5,-28(s0)
/home/letsgrillbananas/wsFreedomStudio/embedded-software/freedom-metal/src/drivers/riscv_clint0.c:73
        (struct __metal_driver_riscv_clint0 *)(controller);

    if (!clint->init_done) {
20011392:	fe442783          	lw	a5,-28(s0)
20011396:	43dc                	lw	a5,4(a5)
20011398:	efa9                	bnez	a5,200113f2 <__metal_driver_riscv_clint0_init+0x7e>
/home/letsgrillbananas/wsFreedomStudio/embedded-software/freedom-metal/src/drivers/riscv_clint0.c:76
        /* Register its interrupts with with parent controller, aka sw and
         * timerto its default isr */
        for (int i = 0; i < num_interrupts; i++) {
2001139a:	fe042623          	sw	zero,-20(s0)
2001139e:	a081                	j	200113de <__metal_driver_riscv_clint0_init+0x6a>
/home/letsgrillbananas/wsFreedomStudio/embedded-software/freedom-metal/src/drivers/riscv_clint0.c:78 (discriminator 3)
            struct metal_interrupt *intc =
                __metal_driver_sifive_clint0_interrupt_parents(controller, i);
200113a0:	fec42583          	lw	a1,-20(s0)
200113a4:	fcc42503          	lw	a0,-52(s0)
200113a8:	3bed                	jal	200111a2 <__metal_driver_sifive_clint0_interrupt_parents>
200113aa:	fea42023          	sw	a0,-32(s0)
/home/letsgrillbananas/wsFreedomStudio/embedded-software/freedom-metal/src/drivers/riscv_clint0.c:80 (discriminator 3)
            int line =
                __metal_driver_sifive_clint0_interrupt_lines(controller, i);
200113ae:	fec42583          	lw	a1,-20(s0)
200113b2:	fcc42503          	lw	a0,-52(s0)
200113b6:	3525                	jal	200111de <__metal_driver_sifive_clint0_interrupt_lines>
200113b8:	fca42e23          	sw	a0,-36(s0)
/home/letsgrillbananas/wsFreedomStudio/embedded-software/freedom-metal/src/drivers/riscv_clint0.c:81 (discriminator 3)
            intc->vtable->interrupt_register(intc, line, NULL, controller);
200113bc:	fe042783          	lw	a5,-32(s0)
200113c0:	439c                	lw	a5,0(a5)
200113c2:	4fdc                	lw	a5,28(a5)
200113c4:	fcc42683          	lw	a3,-52(s0)
200113c8:	4601                	li	a2,0
200113ca:	fdc42583          	lw	a1,-36(s0)
200113ce:	fe042503          	lw	a0,-32(s0)
200113d2:	9782                	jalr	a5
/home/letsgrillbananas/wsFreedomStudio/embedded-software/freedom-metal/src/drivers/riscv_clint0.c:76 (discriminator 3)
        for (int i = 0; i < num_interrupts; i++) {
200113d4:	fec42783          	lw	a5,-20(s0)
200113d8:	0785                	addi	a5,a5,1
200113da:	fef42623          	sw	a5,-20(s0)
/home/letsgrillbananas/wsFreedomStudio/embedded-software/freedom-metal/src/drivers/riscv_clint0.c:76 (discriminator 1)
200113de:	fec42703          	lw	a4,-20(s0)
200113e2:	fe842783          	lw	a5,-24(s0)
200113e6:	faf74de3          	blt	a4,a5,200113a0 <__metal_driver_riscv_clint0_init+0x2c>
/home/letsgrillbananas/wsFreedomStudio/embedded-software/freedom-metal/src/drivers/riscv_clint0.c:83
        }
        clint->init_done = 1;
200113ea:	fe442783          	lw	a5,-28(s0)
200113ee:	4705                	li	a4,1
200113f0:	c3d8                	sw	a4,4(a5)
/home/letsgrillbananas/wsFreedomStudio/embedded-software/freedom-metal/src/drivers/riscv_clint0.c:85
    }
}
200113f2:	0001                	nop
200113f4:	50f2                	lw	ra,60(sp)
200113f6:	5462                	lw	s0,56(sp)
200113f8:	6121                	addi	sp,sp,64
200113fa:	8082                	ret

200113fc <__metal_driver_riscv_clint0_register>:
__metal_driver_riscv_clint0_register():
/home/letsgrillbananas/wsFreedomStudio/embedded-software/freedom-metal/src/drivers/riscv_clint0.c:89

int __metal_driver_riscv_clint0_register(struct metal_interrupt *controller,
                                         int id, metal_interrupt_handler_t isr,
                                         void *priv) {
200113fc:	7139                	addi	sp,sp,-64
200113fe:	de06                	sw	ra,60(sp)
20011400:	dc22                	sw	s0,56(sp)
20011402:	0080                	addi	s0,sp,64
20011404:	fca42623          	sw	a0,-52(s0)
20011408:	fcb42423          	sw	a1,-56(s0)
2001140c:	fcc42223          	sw	a2,-60(s0)
20011410:	fcd42023          	sw	a3,-64(s0)
/home/letsgrillbananas/wsFreedomStudio/embedded-software/freedom-metal/src/drivers/riscv_clint0.c:90
    int rc = -1;
20011414:	57fd                	li	a5,-1
20011416:	fef42623          	sw	a5,-20(s0)
/home/letsgrillbananas/wsFreedomStudio/embedded-software/freedom-metal/src/drivers/riscv_clint0.c:91
    metal_vector_mode mode = __metal_controller_interrupt_vector_mode();
2001141a:	43a010ef          	jal	ra,20012854 <__metal_controller_interrupt_vector_mode>
2001141e:	fea42023          	sw	a0,-32(s0)
/home/letsgrillbananas/wsFreedomStudio/embedded-software/freedom-metal/src/drivers/riscv_clint0.c:92
    struct metal_interrupt *intc = NULL;
20011422:	fe042423          	sw	zero,-24(s0)
/home/letsgrillbananas/wsFreedomStudio/embedded-software/freedom-metal/src/drivers/riscv_clint0.c:93
    struct metal_interrupt *cpu_intc = _get_cpu_intc();
20011426:	3f21                	jal	2001133e <_get_cpu_intc>
20011428:	fca42e23          	sw	a0,-36(s0)
/home/letsgrillbananas/wsFreedomStudio/embedded-software/freedom-metal/src/drivers/riscv_clint0.c:95
    int num_interrupts =
        __metal_driver_sifive_clint0_num_interrupts(controller);
2001142c:	fcc42503          	lw	a0,-52(s0)
20011430:	33a9                	jal	2001117a <__metal_driver_sifive_clint0_num_interrupts>
20011432:	fca42c23          	sw	a0,-40(s0)
/home/letsgrillbananas/wsFreedomStudio/embedded-software/freedom-metal/src/drivers/riscv_clint0.c:97

    if ((mode != METAL_VECTOR_MODE) && (mode != METAL_DIRECT_MODE)) {
20011436:	fe042703          	lw	a4,-32(s0)
2001143a:	4785                	li	a5,1
2001143c:	00f70863          	beq	a4,a5,2001144c <__metal_driver_riscv_clint0_register+0x50>
/home/letsgrillbananas/wsFreedomStudio/embedded-software/freedom-metal/src/drivers/riscv_clint0.c:97 (discriminator 1)
20011440:	fe042783          	lw	a5,-32(s0)
20011444:	c781                	beqz	a5,2001144c <__metal_driver_riscv_clint0_register+0x50>
/home/letsgrillbananas/wsFreedomStudio/embedded-software/freedom-metal/src/drivers/riscv_clint0.c:98
        return rc;
20011446:	fec42783          	lw	a5,-20(s0)
2001144a:	a049                	j	200114cc <__metal_driver_riscv_clint0_register+0xd0>
/home/letsgrillbananas/wsFreedomStudio/embedded-software/freedom-metal/src/drivers/riscv_clint0.c:101
    }

    for (int i = 0; i < num_interrupts; i++) {
2001144c:	fe042223          	sw	zero,-28(s0)
20011450:	a091                	j	20011494 <__metal_driver_riscv_clint0_register+0x98>
/home/letsgrillbananas/wsFreedomStudio/embedded-software/freedom-metal/src/drivers/riscv_clint0.c:102
        int line = __metal_driver_sifive_clint0_interrupt_lines(controller, i);
20011452:	fe442583          	lw	a1,-28(s0)
20011456:	fcc42503          	lw	a0,-52(s0)
2001145a:	3351                	jal	200111de <__metal_driver_sifive_clint0_interrupt_lines>
2001145c:	fca42a23          	sw	a0,-44(s0)
/home/letsgrillbananas/wsFreedomStudio/embedded-software/freedom-metal/src/drivers/riscv_clint0.c:103
        intc = __metal_driver_sifive_clint0_interrupt_parents(controller, i);
20011460:	fe442583          	lw	a1,-28(s0)
20011464:	fcc42503          	lw	a0,-52(s0)
20011468:	3b2d                	jal	200111a2 <__metal_driver_sifive_clint0_interrupt_parents>
2001146a:	fea42423          	sw	a0,-24(s0)
/home/letsgrillbananas/wsFreedomStudio/embedded-software/freedom-metal/src/drivers/riscv_clint0.c:104
        if (cpu_intc == intc && id == line) {
2001146e:	fdc42703          	lw	a4,-36(s0)
20011472:	fe842783          	lw	a5,-24(s0)
20011476:	00f71863          	bne	a4,a5,20011486 <__metal_driver_riscv_clint0_register+0x8a>
/home/letsgrillbananas/wsFreedomStudio/embedded-software/freedom-metal/src/drivers/riscv_clint0.c:104 (discriminator 1)
2001147a:	fc842703          	lw	a4,-56(s0)
2001147e:	fd442783          	lw	a5,-44(s0)
20011482:	02f70063          	beq	a4,a5,200114a2 <__metal_driver_riscv_clint0_register+0xa6>
/home/letsgrillbananas/wsFreedomStudio/embedded-software/freedom-metal/src/drivers/riscv_clint0.c:107 (discriminator 2)
            break;
        }
        intc = NULL;
20011486:	fe042423          	sw	zero,-24(s0)
/home/letsgrillbananas/wsFreedomStudio/embedded-software/freedom-metal/src/drivers/riscv_clint0.c:101 (discriminator 2)
    for (int i = 0; i < num_interrupts; i++) {
2001148a:	fe442783          	lw	a5,-28(s0)
2001148e:	0785                	addi	a5,a5,1
20011490:	fef42223          	sw	a5,-28(s0)
/home/letsgrillbananas/wsFreedomStudio/embedded-software/freedom-metal/src/drivers/riscv_clint0.c:101 (discriminator 1)
20011494:	fe442703          	lw	a4,-28(s0)
20011498:	fd842783          	lw	a5,-40(s0)
2001149c:	faf74be3          	blt	a4,a5,20011452 <__metal_driver_riscv_clint0_register+0x56>
200114a0:	a011                	j	200114a4 <__metal_driver_riscv_clint0_register+0xa8>
/home/letsgrillbananas/wsFreedomStudio/embedded-software/freedom-metal/src/drivers/riscv_clint0.c:105
            break;
200114a2:	0001                	nop
/home/letsgrillbananas/wsFreedomStudio/embedded-software/freedom-metal/src/drivers/riscv_clint0.c:111
    }

    /* Register its interrupts with parent controller */
    if (intc) {
200114a4:	fe842783          	lw	a5,-24(s0)
200114a8:	c385                	beqz	a5,200114c8 <__metal_driver_riscv_clint0_register+0xcc>
/home/letsgrillbananas/wsFreedomStudio/embedded-software/freedom-metal/src/drivers/riscv_clint0.c:112
        rc = intc->vtable->interrupt_register(intc, id, isr, priv);
200114aa:	fe842783          	lw	a5,-24(s0)
200114ae:	439c                	lw	a5,0(a5)
200114b0:	4fdc                	lw	a5,28(a5)
200114b2:	fc042683          	lw	a3,-64(s0)
200114b6:	fc442603          	lw	a2,-60(s0)
200114ba:	fc842583          	lw	a1,-56(s0)
200114be:	fe842503          	lw	a0,-24(s0)
200114c2:	9782                	jalr	a5
200114c4:	fea42623          	sw	a0,-20(s0)
/home/letsgrillbananas/wsFreedomStudio/embedded-software/freedom-metal/src/drivers/riscv_clint0.c:114
    }
    return rc;
200114c8:	fec42783          	lw	a5,-20(s0)
/home/letsgrillbananas/wsFreedomStudio/embedded-software/freedom-metal/src/drivers/riscv_clint0.c:115
}
200114cc:	853e                	mv	a0,a5
200114ce:	50f2                	lw	ra,60(sp)
200114d0:	5462                	lw	s0,56(sp)
200114d2:	6121                	addi	sp,sp,64
200114d4:	8082                	ret

200114d6 <__metal_driver_riscv_clint0_vector_register>:
__metal_driver_riscv_clint0_vector_register():
/home/letsgrillbananas/wsFreedomStudio/embedded-software/freedom-metal/src/drivers/riscv_clint0.c:119

int __metal_driver_riscv_clint0_vector_register(
    struct metal_interrupt *controller, int id,
    metal_interrupt_vector_handler_t isr, void *priv) {
200114d6:	7179                	addi	sp,sp,-48
200114d8:	d622                	sw	s0,44(sp)
200114da:	1800                	addi	s0,sp,48
200114dc:	fca42e23          	sw	a0,-36(s0)
200114e0:	fcb42c23          	sw	a1,-40(s0)
200114e4:	fcc42a23          	sw	a2,-44(s0)
200114e8:	fcd42823          	sw	a3,-48(s0)
/home/letsgrillbananas/wsFreedomStudio/embedded-software/freedom-metal/src/drivers/riscv_clint0.c:121
    /* Not supported. User can override the 'weak' handler with their own */
    int rc = -1;
200114ec:	57fd                	li	a5,-1
200114ee:	fef42623          	sw	a5,-20(s0)
/home/letsgrillbananas/wsFreedomStudio/embedded-software/freedom-metal/src/drivers/riscv_clint0.c:122
    return rc;
200114f2:	fec42783          	lw	a5,-20(s0)
/home/letsgrillbananas/wsFreedomStudio/embedded-software/freedom-metal/src/drivers/riscv_clint0.c:123
}
200114f6:	853e                	mv	a0,a5
200114f8:	5432                	lw	s0,44(sp)
200114fa:	6145                	addi	sp,sp,48
200114fc:	8082                	ret

200114fe <__metal_driver_riscv_clint0_get_vector_mode>:
__metal_driver_riscv_clint0_get_vector_mode():
/home/letsgrillbananas/wsFreedomStudio/embedded-software/freedom-metal/src/drivers/riscv_clint0.c:126

metal_vector_mode __metal_driver_riscv_clint0_get_vector_mode(
    struct metal_interrupt *controller) {
200114fe:	1101                	addi	sp,sp,-32
20011500:	ce06                	sw	ra,28(sp)
20011502:	cc22                	sw	s0,24(sp)
20011504:	1000                	addi	s0,sp,32
20011506:	fea42623          	sw	a0,-20(s0)
/home/letsgrillbananas/wsFreedomStudio/embedded-software/freedom-metal/src/drivers/riscv_clint0.c:127
    return __metal_controller_interrupt_vector_mode();
2001150a:	34a010ef          	jal	ra,20012854 <__metal_controller_interrupt_vector_mode>
2001150e:	87aa                	mv	a5,a0
/home/letsgrillbananas/wsFreedomStudio/embedded-software/freedom-metal/src/drivers/riscv_clint0.c:128
}
20011510:	853e                	mv	a0,a5
20011512:	40f2                	lw	ra,28(sp)
20011514:	4462                	lw	s0,24(sp)
20011516:	6105                	addi	sp,sp,32
20011518:	8082                	ret

2001151a <__metal_driver_riscv_clint0_set_vector_mode>:
__metal_driver_riscv_clint0_set_vector_mode():
/home/letsgrillbananas/wsFreedomStudio/embedded-software/freedom-metal/src/drivers/riscv_clint0.c:131

int __metal_driver_riscv_clint0_set_vector_mode(
    struct metal_interrupt *controller, metal_vector_mode mode) {
2001151a:	7179                	addi	sp,sp,-48
2001151c:	d606                	sw	ra,44(sp)
2001151e:	d422                	sw	s0,40(sp)
20011520:	1800                	addi	s0,sp,48
20011522:	fca42e23          	sw	a0,-36(s0)
20011526:	fcb42c23          	sw	a1,-40(s0)
/home/letsgrillbananas/wsFreedomStudio/embedded-software/freedom-metal/src/drivers/riscv_clint0.c:132
    int rc = -1;
2001152a:	57fd                	li	a5,-1
2001152c:	fef42623          	sw	a5,-20(s0)
/home/letsgrillbananas/wsFreedomStudio/embedded-software/freedom-metal/src/drivers/riscv_clint0.c:133
    struct metal_interrupt *intc = _get_cpu_intc();
20011530:	3539                	jal	2001133e <_get_cpu_intc>
20011532:	fea42423          	sw	a0,-24(s0)
/home/letsgrillbananas/wsFreedomStudio/embedded-software/freedom-metal/src/drivers/riscv_clint0.c:135

    if (intc) {
20011536:	fe842783          	lw	a5,-24(s0)
2001153a:	c395                	beqz	a5,2001155e <__metal_driver_riscv_clint0_set_vector_mode+0x44>
/home/letsgrillbananas/wsFreedomStudio/embedded-software/freedom-metal/src/drivers/riscv_clint0.c:138
        /* Valid vector modes are VECTOR and DIRECT, anything else is invalid
         * (-1) */
        switch (mode) {
2001153c:	fd842703          	lw	a4,-40(s0)
20011540:	4785                	li	a5,1
20011542:	02e7e063          	bltu	a5,a4,20011562 <__metal_driver_riscv_clint0_set_vector_mode+0x48>
/home/letsgrillbananas/wsFreedomStudio/embedded-software/freedom-metal/src/drivers/riscv_clint0.c:141
        case METAL_VECTOR_MODE:
        case METAL_DIRECT_MODE:
            rc = intc->vtable->interrupt_set_vector_mode(intc, mode);
20011546:	fe842783          	lw	a5,-24(s0)
2001154a:	439c                	lw	a5,0(a5)
2001154c:	43dc                	lw	a5,4(a5)
2001154e:	fd842583          	lw	a1,-40(s0)
20011552:	fe842503          	lw	a0,-24(s0)
20011556:	9782                	jalr	a5
20011558:	fea42623          	sw	a0,-20(s0)
/home/letsgrillbananas/wsFreedomStudio/embedded-software/freedom-metal/src/drivers/riscv_clint0.c:142
            break;
2001155c:	a021                	j	20011564 <__metal_driver_riscv_clint0_set_vector_mode+0x4a>
/home/letsgrillbananas/wsFreedomStudio/embedded-software/freedom-metal/src/drivers/riscv_clint0.c:146
        default:
            break;
        }
    }
2001155e:	0001                	nop
20011560:	a011                	j	20011564 <__metal_driver_riscv_clint0_set_vector_mode+0x4a>
/home/letsgrillbananas/wsFreedomStudio/embedded-software/freedom-metal/src/drivers/riscv_clint0.c:144
            break;
20011562:	0001                	nop
/home/letsgrillbananas/wsFreedomStudio/embedded-software/freedom-metal/src/drivers/riscv_clint0.c:147
    return rc;
20011564:	fec42783          	lw	a5,-20(s0)
/home/letsgrillbananas/wsFreedomStudio/embedded-software/freedom-metal/src/drivers/riscv_clint0.c:148
}
20011568:	853e                	mv	a0,a5
2001156a:	50b2                	lw	ra,44(sp)
2001156c:	5422                	lw	s0,40(sp)
2001156e:	6145                	addi	sp,sp,48
20011570:	8082                	ret

20011572 <__metal_driver_riscv_clint0_enable>:
__metal_driver_riscv_clint0_enable():
/home/letsgrillbananas/wsFreedomStudio/embedded-software/freedom-metal/src/drivers/riscv_clint0.c:151

int __metal_driver_riscv_clint0_enable(struct metal_interrupt *controller,
                                       int id) {
20011572:	7139                	addi	sp,sp,-64
20011574:	de06                	sw	ra,60(sp)
20011576:	dc22                	sw	s0,56(sp)
20011578:	0080                	addi	s0,sp,64
2001157a:	fca42623          	sw	a0,-52(s0)
2001157e:	fcb42423          	sw	a1,-56(s0)
/home/letsgrillbananas/wsFreedomStudio/embedded-software/freedom-metal/src/drivers/riscv_clint0.c:152
    int rc = -1;
20011582:	57fd                	li	a5,-1
20011584:	fef42623          	sw	a5,-20(s0)
/home/letsgrillbananas/wsFreedomStudio/embedded-software/freedom-metal/src/drivers/riscv_clint0.c:154

    if (id) {
20011588:	fc842783          	lw	a5,-56(s0)
2001158c:	c7c9                	beqz	a5,20011616 <__metal_driver_riscv_clint0_enable+0xa4>
/home/letsgrillbananas/wsFreedomStudio/embedded-software/freedom-metal/src/drivers/riscv_clint0.c:155
        struct metal_interrupt *intc = NULL;
2001158e:	fe042423          	sw	zero,-24(s0)
/home/letsgrillbananas/wsFreedomStudio/embedded-software/freedom-metal/src/drivers/riscv_clint0.c:156
        struct metal_interrupt *cpu_intc = _get_cpu_intc();
20011592:	3375                	jal	2001133e <_get_cpu_intc>
20011594:	fea42023          	sw	a0,-32(s0)
/home/letsgrillbananas/wsFreedomStudio/embedded-software/freedom-metal/src/drivers/riscv_clint0.c:158
        int num_interrupts =
            __metal_driver_sifive_clint0_num_interrupts(controller);
20011598:	fcc42503          	lw	a0,-52(s0)
2001159c:	3ef9                	jal	2001117a <__metal_driver_sifive_clint0_num_interrupts>
2001159e:	fca42e23          	sw	a0,-36(s0)
/home/letsgrillbananas/wsFreedomStudio/embedded-software/freedom-metal/src/drivers/riscv_clint0.c:160

        for (int i = 0; i < num_interrupts; i++) {
200115a2:	fe042223          	sw	zero,-28(s0)
200115a6:	a091                	j	200115ea <__metal_driver_riscv_clint0_enable+0x78>
/home/letsgrillbananas/wsFreedomStudio/embedded-software/freedom-metal/src/drivers/riscv_clint0.c:162
            int line =
                __metal_driver_sifive_clint0_interrupt_lines(controller, i);
200115a8:	fe442583          	lw	a1,-28(s0)
200115ac:	fcc42503          	lw	a0,-52(s0)
200115b0:	313d                	jal	200111de <__metal_driver_sifive_clint0_interrupt_lines>
200115b2:	fca42c23          	sw	a0,-40(s0)
/home/letsgrillbananas/wsFreedomStudio/embedded-software/freedom-metal/src/drivers/riscv_clint0.c:164
            intc =
                __metal_driver_sifive_clint0_interrupt_parents(controller, i);
200115b6:	fe442583          	lw	a1,-28(s0)
200115ba:	fcc42503          	lw	a0,-52(s0)
200115be:	36d5                	jal	200111a2 <__metal_driver_sifive_clint0_interrupt_parents>
200115c0:	fea42423          	sw	a0,-24(s0)
/home/letsgrillbananas/wsFreedomStudio/embedded-software/freedom-metal/src/drivers/riscv_clint0.c:165
            if (cpu_intc == intc && id == line) {
200115c4:	fe042703          	lw	a4,-32(s0)
200115c8:	fe842783          	lw	a5,-24(s0)
200115cc:	00f71863          	bne	a4,a5,200115dc <__metal_driver_riscv_clint0_enable+0x6a>
/home/letsgrillbananas/wsFreedomStudio/embedded-software/freedom-metal/src/drivers/riscv_clint0.c:165 (discriminator 1)
200115d0:	fc842703          	lw	a4,-56(s0)
200115d4:	fd842783          	lw	a5,-40(s0)
200115d8:	02f70063          	beq	a4,a5,200115f8 <__metal_driver_riscv_clint0_enable+0x86>
/home/letsgrillbananas/wsFreedomStudio/embedded-software/freedom-metal/src/drivers/riscv_clint0.c:168 (discriminator 2)
                break;
            }
            intc = NULL;
200115dc:	fe042423          	sw	zero,-24(s0)
/home/letsgrillbananas/wsFreedomStudio/embedded-software/freedom-metal/src/drivers/riscv_clint0.c:160 (discriminator 2)
        for (int i = 0; i < num_interrupts; i++) {
200115e0:	fe442783          	lw	a5,-28(s0)
200115e4:	0785                	addi	a5,a5,1
200115e6:	fef42223          	sw	a5,-28(s0)
/home/letsgrillbananas/wsFreedomStudio/embedded-software/freedom-metal/src/drivers/riscv_clint0.c:160 (discriminator 1)
200115ea:	fe442703          	lw	a4,-28(s0)
200115ee:	fdc42783          	lw	a5,-36(s0)
200115f2:	faf74be3          	blt	a4,a5,200115a8 <__metal_driver_riscv_clint0_enable+0x36>
200115f6:	a011                	j	200115fa <__metal_driver_riscv_clint0_enable+0x88>
/home/letsgrillbananas/wsFreedomStudio/embedded-software/freedom-metal/src/drivers/riscv_clint0.c:166
                break;
200115f8:	0001                	nop
/home/letsgrillbananas/wsFreedomStudio/embedded-software/freedom-metal/src/drivers/riscv_clint0.c:172
        }

        /* Enable its interrupts with parent controller */
        if (intc) {
200115fa:	fe842783          	lw	a5,-24(s0)
200115fe:	cf81                	beqz	a5,20011616 <__metal_driver_riscv_clint0_enable+0xa4>
/home/letsgrillbananas/wsFreedomStudio/embedded-software/freedom-metal/src/drivers/riscv_clint0.c:173
            rc = intc->vtable->interrupt_enable(intc, id);
20011600:	fe842783          	lw	a5,-24(s0)
20011604:	439c                	lw	a5,0(a5)
20011606:	53dc                	lw	a5,36(a5)
20011608:	fc842583          	lw	a1,-56(s0)
2001160c:	fe842503          	lw	a0,-24(s0)
20011610:	9782                	jalr	a5
20011612:	fea42623          	sw	a0,-20(s0)
/home/letsgrillbananas/wsFreedomStudio/embedded-software/freedom-metal/src/drivers/riscv_clint0.c:177
        }
    }

    return rc;
20011616:	fec42783          	lw	a5,-20(s0)
/home/letsgrillbananas/wsFreedomStudio/embedded-software/freedom-metal/src/drivers/riscv_clint0.c:178
}
2001161a:	853e                	mv	a0,a5
2001161c:	50f2                	lw	ra,60(sp)
2001161e:	5462                	lw	s0,56(sp)
20011620:	6121                	addi	sp,sp,64
20011622:	8082                	ret

20011624 <__metal_driver_riscv_clint0_disable>:
__metal_driver_riscv_clint0_disable():
/home/letsgrillbananas/wsFreedomStudio/embedded-software/freedom-metal/src/drivers/riscv_clint0.c:181

int __metal_driver_riscv_clint0_disable(struct metal_interrupt *controller,
                                        int id) {
20011624:	7139                	addi	sp,sp,-64
20011626:	de06                	sw	ra,60(sp)
20011628:	dc22                	sw	s0,56(sp)
2001162a:	0080                	addi	s0,sp,64
2001162c:	fca42623          	sw	a0,-52(s0)
20011630:	fcb42423          	sw	a1,-56(s0)
/home/letsgrillbananas/wsFreedomStudio/embedded-software/freedom-metal/src/drivers/riscv_clint0.c:182
    int rc = -1;
20011634:	57fd                	li	a5,-1
20011636:	fef42623          	sw	a5,-20(s0)
/home/letsgrillbananas/wsFreedomStudio/embedded-software/freedom-metal/src/drivers/riscv_clint0.c:184

    if (id) {
2001163a:	fc842783          	lw	a5,-56(s0)
2001163e:	c7c9                	beqz	a5,200116c8 <__metal_driver_riscv_clint0_disable+0xa4>
/home/letsgrillbananas/wsFreedomStudio/embedded-software/freedom-metal/src/drivers/riscv_clint0.c:185
        struct metal_interrupt *intc = NULL;
20011640:	fe042423          	sw	zero,-24(s0)
/home/letsgrillbananas/wsFreedomStudio/embedded-software/freedom-metal/src/drivers/riscv_clint0.c:186
        struct metal_interrupt *cpu_intc = _get_cpu_intc();
20011644:	39ed                	jal	2001133e <_get_cpu_intc>
20011646:	fea42023          	sw	a0,-32(s0)
/home/letsgrillbananas/wsFreedomStudio/embedded-software/freedom-metal/src/drivers/riscv_clint0.c:188
        int num_interrupts =
            __metal_driver_sifive_clint0_num_interrupts(controller);
2001164a:	fcc42503          	lw	a0,-52(s0)
2001164e:	3635                	jal	2001117a <__metal_driver_sifive_clint0_num_interrupts>
20011650:	fca42e23          	sw	a0,-36(s0)
/home/letsgrillbananas/wsFreedomStudio/embedded-software/freedom-metal/src/drivers/riscv_clint0.c:190

        for (int i = 0; i < num_interrupts; i++) {
20011654:	fe042223          	sw	zero,-28(s0)
20011658:	a091                	j	2001169c <__metal_driver_riscv_clint0_disable+0x78>
/home/letsgrillbananas/wsFreedomStudio/embedded-software/freedom-metal/src/drivers/riscv_clint0.c:192
            int line =
                __metal_driver_sifive_clint0_interrupt_lines(controller, i);
2001165a:	fe442583          	lw	a1,-28(s0)
2001165e:	fcc42503          	lw	a0,-52(s0)
20011662:	3eb5                	jal	200111de <__metal_driver_sifive_clint0_interrupt_lines>
20011664:	fca42c23          	sw	a0,-40(s0)
/home/letsgrillbananas/wsFreedomStudio/embedded-software/freedom-metal/src/drivers/riscv_clint0.c:194
            intc =
                __metal_driver_sifive_clint0_interrupt_parents(controller, i);
20011668:	fe442583          	lw	a1,-28(s0)
2001166c:	fcc42503          	lw	a0,-52(s0)
20011670:	3e0d                	jal	200111a2 <__metal_driver_sifive_clint0_interrupt_parents>
20011672:	fea42423          	sw	a0,-24(s0)
/home/letsgrillbananas/wsFreedomStudio/embedded-software/freedom-metal/src/drivers/riscv_clint0.c:195
            if (cpu_intc == intc && id == line) {
20011676:	fe042703          	lw	a4,-32(s0)
2001167a:	fe842783          	lw	a5,-24(s0)
2001167e:	00f71863          	bne	a4,a5,2001168e <__metal_driver_riscv_clint0_disable+0x6a>
/home/letsgrillbananas/wsFreedomStudio/embedded-software/freedom-metal/src/drivers/riscv_clint0.c:195 (discriminator 1)
20011682:	fc842703          	lw	a4,-56(s0)
20011686:	fd842783          	lw	a5,-40(s0)
2001168a:	02f70063          	beq	a4,a5,200116aa <__metal_driver_riscv_clint0_disable+0x86>
/home/letsgrillbananas/wsFreedomStudio/embedded-software/freedom-metal/src/drivers/riscv_clint0.c:198 (discriminator 2)
                break;
            }
            intc = NULL;
2001168e:	fe042423          	sw	zero,-24(s0)
/home/letsgrillbananas/wsFreedomStudio/embedded-software/freedom-metal/src/drivers/riscv_clint0.c:190 (discriminator 2)
        for (int i = 0; i < num_interrupts; i++) {
20011692:	fe442783          	lw	a5,-28(s0)
20011696:	0785                	addi	a5,a5,1
20011698:	fef42223          	sw	a5,-28(s0)
/home/letsgrillbananas/wsFreedomStudio/embedded-software/freedom-metal/src/drivers/riscv_clint0.c:190 (discriminator 1)
2001169c:	fe442703          	lw	a4,-28(s0)
200116a0:	fdc42783          	lw	a5,-36(s0)
200116a4:	faf74be3          	blt	a4,a5,2001165a <__metal_driver_riscv_clint0_disable+0x36>
200116a8:	a011                	j	200116ac <__metal_driver_riscv_clint0_disable+0x88>
/home/letsgrillbananas/wsFreedomStudio/embedded-software/freedom-metal/src/drivers/riscv_clint0.c:196
                break;
200116aa:	0001                	nop
/home/letsgrillbananas/wsFreedomStudio/embedded-software/freedom-metal/src/drivers/riscv_clint0.c:202
        }

        /* Disable its interrupts with parent controller */
        if (intc) {
200116ac:	fe842783          	lw	a5,-24(s0)
200116b0:	cf81                	beqz	a5,200116c8 <__metal_driver_riscv_clint0_disable+0xa4>
/home/letsgrillbananas/wsFreedomStudio/embedded-software/freedom-metal/src/drivers/riscv_clint0.c:203
            rc = intc->vtable->interrupt_disable(intc, id);
200116b2:	fe842783          	lw	a5,-24(s0)
200116b6:	439c                	lw	a5,0(a5)
200116b8:	579c                	lw	a5,40(a5)
200116ba:	fc842583          	lw	a1,-56(s0)
200116be:	fe842503          	lw	a0,-24(s0)
200116c2:	9782                	jalr	a5
200116c4:	fea42623          	sw	a0,-20(s0)
/home/letsgrillbananas/wsFreedomStudio/embedded-software/freedom-metal/src/drivers/riscv_clint0.c:207
        }
    }

    return rc;
200116c8:	fec42783          	lw	a5,-20(s0)
/home/letsgrillbananas/wsFreedomStudio/embedded-software/freedom-metal/src/drivers/riscv_clint0.c:208
}
200116cc:	853e                	mv	a0,a5
200116ce:	50f2                	lw	ra,60(sp)
200116d0:	5462                	lw	s0,56(sp)
200116d2:	6121                	addi	sp,sp,64
200116d4:	8082                	ret

200116d6 <__metal_driver_riscv_clint0_command_request>:
__metal_driver_riscv_clint0_command_request():
/home/letsgrillbananas/wsFreedomStudio/embedded-software/freedom-metal/src/drivers/riscv_clint0.c:211

int __metal_driver_riscv_clint0_command_request(
    struct metal_interrupt *controller, int command, void *data) {
200116d6:	7179                	addi	sp,sp,-48
200116d8:	d606                	sw	ra,44(sp)
200116da:	d422                	sw	s0,40(sp)
200116dc:	1800                	addi	s0,sp,48
200116de:	fca42e23          	sw	a0,-36(s0)
200116e2:	fcb42c23          	sw	a1,-40(s0)
200116e6:	fcc42a23          	sw	a2,-44(s0)
/home/letsgrillbananas/wsFreedomStudio/embedded-software/freedom-metal/src/drivers/riscv_clint0.c:213
    int hartid;
    int rc = -1;
200116ea:	57fd                	li	a5,-1
200116ec:	fef42623          	sw	a5,-20(s0)
/home/letsgrillbananas/wsFreedomStudio/embedded-software/freedom-metal/src/drivers/riscv_clint0.c:214
    struct __metal_driver_riscv_clint0 *clint =
200116f0:	fdc42783          	lw	a5,-36(s0)
200116f4:	fef42423          	sw	a5,-24(s0)
/home/letsgrillbananas/wsFreedomStudio/embedded-software/freedom-metal/src/drivers/riscv_clint0.c:217
        (struct __metal_driver_riscv_clint0 *)(controller);
    unsigned long control_base =
        __metal_driver_sifive_clint0_control_base(controller);
200116f8:	fdc42503          	lw	a0,-36(s0)
200116fc:	3c91                	jal	20011150 <__metal_driver_sifive_clint0_control_base>
200116fe:	fea42223          	sw	a0,-28(s0)
/home/letsgrillbananas/wsFreedomStudio/embedded-software/freedom-metal/src/drivers/riscv_clint0.c:219

    switch (command) {
20011702:	fd842703          	lw	a4,-40(s0)
20011706:	4789                	li	a5,2
20011708:	04f70863          	beq	a4,a5,20011758 <__metal_driver_riscv_clint0_command_request+0x82>
2001170c:	fd842703          	lw	a4,-40(s0)
20011710:	4789                	li	a5,2
20011712:	00e7c863          	blt	a5,a4,20011722 <__metal_driver_riscv_clint0_command_request+0x4c>
20011716:	fd842703          	lw	a4,-40(s0)
2001171a:	4785                	li	a5,1
2001171c:	00f70e63          	beq	a4,a5,20011738 <__metal_driver_riscv_clint0_command_request+0x62>
/home/letsgrillbananas/wsFreedomStudio/embedded-software/freedom-metal/src/drivers/riscv_clint0.c:263
            rc = __METAL_ACCESS_ONCE(
                (__metal_io_u32 *)(control_base + (hartid * 4)));
        }
        break;
    default:
        break;
20011720:	a8e9                	j	200117fa <__metal_driver_riscv_clint0_command_request+0x124>
/home/letsgrillbananas/wsFreedomStudio/embedded-software/freedom-metal/src/drivers/riscv_clint0.c:219
    switch (command) {
20011722:	fd842703          	lw	a4,-40(s0)
20011726:	478d                	li	a5,3
20011728:	04f70c63          	beq	a4,a5,20011780 <__metal_driver_riscv_clint0_command_request+0xaa>
2001172c:	fd842703          	lw	a4,-40(s0)
20011730:	4791                	li	a5,4
20011732:	08f70863          	beq	a4,a5,200117c2 <__metal_driver_riscv_clint0_command_request+0xec>
/home/letsgrillbananas/wsFreedomStudio/embedded-software/freedom-metal/src/drivers/riscv_clint0.c:263
        break;
20011736:	a0d1                	j	200117fa <__metal_driver_riscv_clint0_command_request+0x124>
/home/letsgrillbananas/wsFreedomStudio/embedded-software/freedom-metal/src/drivers/riscv_clint0.c:221
        if (data) {
20011738:	fd442783          	lw	a5,-44(s0)
2001173c:	cbc5                	beqz	a5,200117ec <__metal_driver_riscv_clint0_command_request+0x116>
/home/letsgrillbananas/wsFreedomStudio/embedded-software/freedom-metal/src/drivers/riscv_clint0.c:222
            *(unsigned long long *)data = __metal_clint0_mtime_get(clint);
2001173e:	fe842503          	lw	a0,-24(s0)
20011742:	34f1                	jal	2001120e <__metal_clint0_mtime_get>
20011744:	87aa                	mv	a5,a0
20011746:	882e                	mv	a6,a1
20011748:	fd442703          	lw	a4,-44(s0)
2001174c:	c31c                	sw	a5,0(a4)
2001174e:	01072223          	sw	a6,4(a4)
/home/letsgrillbananas/wsFreedomStudio/embedded-software/freedom-metal/src/drivers/riscv_clint0.c:223
            rc = 0;
20011752:	fe042623          	sw	zero,-20(s0)
/home/letsgrillbananas/wsFreedomStudio/embedded-software/freedom-metal/src/drivers/riscv_clint0.c:225
        break;
20011756:	a859                	j	200117ec <__metal_driver_riscv_clint0_command_request+0x116>
/home/letsgrillbananas/wsFreedomStudio/embedded-software/freedom-metal/src/drivers/riscv_clint0.c:227
        if (data) {
20011758:	fd442783          	lw	a5,-44(s0)
2001175c:	cbd1                	beqz	a5,200117f0 <__metal_driver_riscv_clint0_command_request+0x11a>
/home/letsgrillbananas/wsFreedomStudio/embedded-software/freedom-metal/src/drivers/riscv_clint0.c:228
            hartid = *(int *)data;
2001175e:	fd442783          	lw	a5,-44(s0)
20011762:	439c                	lw	a5,0(a5)
20011764:	fef42023          	sw	a5,-32(s0)
/home/letsgrillbananas/wsFreedomStudio/embedded-software/freedom-metal/src/drivers/riscv_clint0.c:229
            __METAL_ACCESS_ONCE((
20011768:	fe042783          	lw	a5,-32(s0)
2001176c:	078a                	slli	a5,a5,0x2
2001176e:	873e                	mv	a4,a5
20011770:	fe442783          	lw	a5,-28(s0)
20011774:	97ba                	add	a5,a5,a4
/home/letsgrillbananas/wsFreedomStudio/embedded-software/freedom-metal/src/drivers/riscv_clint0.c:230
                __metal_io_u32 *)(control_base + (hartid * 4))) = METAL_DISABLE;
20011776:	0007a023          	sw	zero,0(a5) # 4000 <__heap_size+0x3800>
/home/letsgrillbananas/wsFreedomStudio/embedded-software/freedom-metal/src/drivers/riscv_clint0.c:231
            rc = 0;
2001177a:	fe042623          	sw	zero,-20(s0)
/home/letsgrillbananas/wsFreedomStudio/embedded-software/freedom-metal/src/drivers/riscv_clint0.c:233
        break;
2001177e:	a88d                	j	200117f0 <__metal_driver_riscv_clint0_command_request+0x11a>
/home/letsgrillbananas/wsFreedomStudio/embedded-software/freedom-metal/src/drivers/riscv_clint0.c:235
        if (data) {
20011780:	fd442783          	lw	a5,-44(s0)
20011784:	cba5                	beqz	a5,200117f4 <__metal_driver_riscv_clint0_command_request+0x11e>
/home/letsgrillbananas/wsFreedomStudio/embedded-software/freedom-metal/src/drivers/riscv_clint0.c:236
            hartid = *(int *)data;
20011786:	fd442783          	lw	a5,-44(s0)
2001178a:	439c                	lw	a5,0(a5)
2001178c:	fef42023          	sw	a5,-32(s0)
/home/letsgrillbananas/wsFreedomStudio/embedded-software/freedom-metal/src/drivers/riscv_clint0.c:237
            __METAL_ACCESS_ONCE(
20011790:	fe042783          	lw	a5,-32(s0)
20011794:	078a                	slli	a5,a5,0x2
20011796:	873e                	mv	a4,a5
20011798:	fe442783          	lw	a5,-28(s0)
2001179c:	97ba                	add	a5,a5,a4
2001179e:	873e                	mv	a4,a5
/home/letsgrillbananas/wsFreedomStudio/embedded-software/freedom-metal/src/drivers/riscv_clint0.c:238
                (__metal_io_u32 *)(control_base + (hartid * 4))) = METAL_ENABLE;
200117a0:	4785                	li	a5,1
200117a2:	c31c                	sw	a5,0(a4)
/home/letsgrillbananas/wsFreedomStudio/embedded-software/freedom-metal/src/drivers/riscv_clint0.c:248
            __METAL_IO_FENCE(o, i);
200117a4:	0480000f          	fence	o,i
/home/letsgrillbananas/wsFreedomStudio/embedded-software/freedom-metal/src/drivers/riscv_clint0.c:249
            rc = __METAL_ACCESS_ONCE(
200117a8:	fe042783          	lw	a5,-32(s0)
200117ac:	078a                	slli	a5,a5,0x2
200117ae:	873e                	mv	a4,a5
200117b0:	fe442783          	lw	a5,-28(s0)
200117b4:	97ba                	add	a5,a5,a4
200117b6:	439c                	lw	a5,0(a5)
200117b8:	fef42623          	sw	a5,-20(s0)
/home/letsgrillbananas/wsFreedomStudio/embedded-software/freedom-metal/src/drivers/riscv_clint0.c:251
            rc = 0;
200117bc:	fe042623          	sw	zero,-20(s0)
/home/letsgrillbananas/wsFreedomStudio/embedded-software/freedom-metal/src/drivers/riscv_clint0.c:253
        break;
200117c0:	a815                	j	200117f4 <__metal_driver_riscv_clint0_command_request+0x11e>
/home/letsgrillbananas/wsFreedomStudio/embedded-software/freedom-metal/src/drivers/riscv_clint0.c:255
        rc = 0;
200117c2:	fe042623          	sw	zero,-20(s0)
/home/letsgrillbananas/wsFreedomStudio/embedded-software/freedom-metal/src/drivers/riscv_clint0.c:256
        if (data) {
200117c6:	fd442783          	lw	a5,-44(s0)
200117ca:	c79d                	beqz	a5,200117f8 <__metal_driver_riscv_clint0_command_request+0x122>
/home/letsgrillbananas/wsFreedomStudio/embedded-software/freedom-metal/src/drivers/riscv_clint0.c:257
            hartid = *(int *)data;
200117cc:	fd442783          	lw	a5,-44(s0)
200117d0:	439c                	lw	a5,0(a5)
200117d2:	fef42023          	sw	a5,-32(s0)
/home/letsgrillbananas/wsFreedomStudio/embedded-software/freedom-metal/src/drivers/riscv_clint0.c:258
            rc = __METAL_ACCESS_ONCE(
200117d6:	fe042783          	lw	a5,-32(s0)
200117da:	078a                	slli	a5,a5,0x2
200117dc:	873e                	mv	a4,a5
200117de:	fe442783          	lw	a5,-28(s0)
200117e2:	97ba                	add	a5,a5,a4
200117e4:	439c                	lw	a5,0(a5)
200117e6:	fef42623          	sw	a5,-20(s0)
/home/letsgrillbananas/wsFreedomStudio/embedded-software/freedom-metal/src/drivers/riscv_clint0.c:261
        break;
200117ea:	a039                	j	200117f8 <__metal_driver_riscv_clint0_command_request+0x122>
/home/letsgrillbananas/wsFreedomStudio/embedded-software/freedom-metal/src/drivers/riscv_clint0.c:225
        break;
200117ec:	0001                	nop
200117ee:	a031                	j	200117fa <__metal_driver_riscv_clint0_command_request+0x124>
/home/letsgrillbananas/wsFreedomStudio/embedded-software/freedom-metal/src/drivers/riscv_clint0.c:233
        break;
200117f0:	0001                	nop
200117f2:	a021                	j	200117fa <__metal_driver_riscv_clint0_command_request+0x124>
/home/letsgrillbananas/wsFreedomStudio/embedded-software/freedom-metal/src/drivers/riscv_clint0.c:253
        break;
200117f4:	0001                	nop
200117f6:	a011                	j	200117fa <__metal_driver_riscv_clint0_command_request+0x124>
/home/letsgrillbananas/wsFreedomStudio/embedded-software/freedom-metal/src/drivers/riscv_clint0.c:261
        break;
200117f8:	0001                	nop
/home/letsgrillbananas/wsFreedomStudio/embedded-software/freedom-metal/src/drivers/riscv_clint0.c:266
    }

    return rc;
200117fa:	fec42783          	lw	a5,-20(s0)
/home/letsgrillbananas/wsFreedomStudio/embedded-software/freedom-metal/src/drivers/riscv_clint0.c:267
}
200117fe:	853e                	mv	a0,a5
20011800:	50b2                	lw	ra,44(sp)
20011802:	5422                	lw	s0,40(sp)
20011804:	6145                	addi	sp,sp,48
20011806:	8082                	ret

20011808 <__metal_driver_riscv_clint0_clear_interrupt>:
__metal_driver_riscv_clint0_clear_interrupt():
/home/letsgrillbananas/wsFreedomStudio/embedded-software/freedom-metal/src/drivers/riscv_clint0.c:270

int __metal_driver_riscv_clint0_clear_interrupt(
    struct metal_interrupt *controller, int id) {
20011808:	7179                	addi	sp,sp,-48
2001180a:	d606                	sw	ra,44(sp)
2001180c:	d422                	sw	s0,40(sp)
2001180e:	1800                	addi	s0,sp,48
20011810:	fca42e23          	sw	a0,-36(s0)
20011814:	fcb42c23          	sw	a1,-40(s0)
/home/letsgrillbananas/wsFreedomStudio/embedded-software/freedom-metal/src/drivers/riscv_clint0.c:271
    int hartid = metal_cpu_get_current_hartid();
20011818:	450020ef          	jal	ra,20013c68 <metal_cpu_get_current_hartid>
2001181c:	87aa                	mv	a5,a0
2001181e:	fef42623          	sw	a5,-20(s0)
/home/letsgrillbananas/wsFreedomStudio/embedded-software/freedom-metal/src/drivers/riscv_clint0.c:272
    return __metal_driver_riscv_clint0_command_request(
20011822:	fec40793          	addi	a5,s0,-20
20011826:	863e                	mv	a2,a5
20011828:	4589                	li	a1,2
2001182a:	fdc42503          	lw	a0,-36(s0)
2001182e:	3565                	jal	200116d6 <__metal_driver_riscv_clint0_command_request>
20011830:	87aa                	mv	a5,a0
/home/letsgrillbananas/wsFreedomStudio/embedded-software/freedom-metal/src/drivers/riscv_clint0.c:274
        controller, METAL_SOFTWARE_IPI_CLEAR, &hartid);
}
20011832:	853e                	mv	a0,a5
20011834:	50b2                	lw	ra,44(sp)
20011836:	5422                	lw	s0,40(sp)
20011838:	6145                	addi	sp,sp,48
2001183a:	8082                	ret

2001183c <__metal_driver_riscv_clint0_set_interrupt>:
__metal_driver_riscv_clint0_set_interrupt():
/home/letsgrillbananas/wsFreedomStudio/embedded-software/freedom-metal/src/drivers/riscv_clint0.c:277

int __metal_driver_riscv_clint0_set_interrupt(
    struct metal_interrupt *controller, int id) {
2001183c:	7179                	addi	sp,sp,-48
2001183e:	d606                	sw	ra,44(sp)
20011840:	d422                	sw	s0,40(sp)
20011842:	1800                	addi	s0,sp,48
20011844:	fca42e23          	sw	a0,-36(s0)
20011848:	fcb42c23          	sw	a1,-40(s0)
/home/letsgrillbananas/wsFreedomStudio/embedded-software/freedom-metal/src/drivers/riscv_clint0.c:278
    int hartid = metal_cpu_get_current_hartid();
2001184c:	41c020ef          	jal	ra,20013c68 <metal_cpu_get_current_hartid>
20011850:	87aa                	mv	a5,a0
20011852:	fef42623          	sw	a5,-20(s0)
/home/letsgrillbananas/wsFreedomStudio/embedded-software/freedom-metal/src/drivers/riscv_clint0.c:279
    return __metal_driver_riscv_clint0_command_request(
20011856:	fec40793          	addi	a5,s0,-20
2001185a:	863e                	mv	a2,a5
2001185c:	458d                	li	a1,3
2001185e:	fdc42503          	lw	a0,-36(s0)
20011862:	3d95                	jal	200116d6 <__metal_driver_riscv_clint0_command_request>
20011864:	87aa                	mv	a5,a0
/home/letsgrillbananas/wsFreedomStudio/embedded-software/freedom-metal/src/drivers/riscv_clint0.c:281
        controller, METAL_SOFTWARE_IPI_SET, &hartid);
}
20011866:	853e                	mv	a0,a5
20011868:	50b2                	lw	ra,44(sp)
2001186a:	5422                	lw	s0,40(sp)
2001186c:	6145                	addi	sp,sp,48
2001186e:	8082                	ret

20011870 <__metal_driver_cpu_hartid>:
__metal_driver_cpu_hartid():
/home/letsgrillbananas/wsFreedomStudio/embedded-software/bsp/build/debug/./metal/machine.h:292



/* --------------------- cpu ------------ */
static __inline__ int __metal_driver_cpu_hartid(struct metal_cpu *cpu)
{
20011870:	1101                	addi	sp,sp,-32
20011872:	ce22                	sw	s0,28(sp)
20011874:	1000                	addi	s0,sp,32
20011876:	fea42623          	sw	a0,-20(s0)
/home/letsgrillbananas/wsFreedomStudio/embedded-software/bsp/build/debug/./metal/machine.h:293
	if ((uintptr_t)cpu == (uintptr_t)&__metal_dt_cpu_0) {
2001187a:	fec42703          	lw	a4,-20(s0)
2001187e:	81018793          	addi	a5,gp,-2032 # 80000498 <__metal_dt_cpu_0>
20011882:	00f71463          	bne	a4,a5,2001188a <__metal_driver_cpu_hartid+0x1a>
/home/letsgrillbananas/wsFreedomStudio/embedded-software/bsp/build/debug/./metal/machine.h:294
		return 0;
20011886:	4781                	li	a5,0
20011888:	a011                	j	2001188c <__metal_driver_cpu_hartid+0x1c>
/home/letsgrillbananas/wsFreedomStudio/embedded-software/bsp/build/debug/./metal/machine.h:297
	}
	else {
		return -1;
2001188a:	57fd                	li	a5,-1
/home/letsgrillbananas/wsFreedomStudio/embedded-software/bsp/build/debug/./metal/machine.h:299
	}
}
2001188c:	853e                	mv	a0,a5
2001188e:	4472                	lw	s0,28(sp)
20011890:	6105                	addi	sp,sp,32
20011892:	8082                	ret

20011894 <__metal_driver_cpu_timebase>:
__metal_driver_cpu_timebase():
/home/letsgrillbananas/wsFreedomStudio/embedded-software/bsp/build/debug/./metal/machine.h:302

static __inline__ int __metal_driver_cpu_timebase(struct metal_cpu *cpu)
{
20011894:	1101                	addi	sp,sp,-32
20011896:	ce22                	sw	s0,28(sp)
20011898:	1000                	addi	s0,sp,32
2001189a:	fea42623          	sw	a0,-20(s0)
/home/letsgrillbananas/wsFreedomStudio/embedded-software/bsp/build/debug/./metal/machine.h:303
	if ((uintptr_t)cpu == (uintptr_t)&__metal_dt_cpu_0) {
2001189e:	fec42703          	lw	a4,-20(s0)
200118a2:	81018793          	addi	a5,gp,-2032 # 80000498 <__metal_dt_cpu_0>
200118a6:	00f71763          	bne	a4,a5,200118b4 <__metal_driver_cpu_timebase+0x20>
/home/letsgrillbananas/wsFreedomStudio/embedded-software/bsp/build/debug/./metal/machine.h:304
		return 16000000;
200118aa:	00f427b7          	lui	a5,0xf42
200118ae:	40078793          	addi	a5,a5,1024 # f42400 <__heap_size+0xf41c00>
200118b2:	a011                	j	200118b6 <__metal_driver_cpu_timebase+0x22>
/home/letsgrillbananas/wsFreedomStudio/embedded-software/bsp/build/debug/./metal/machine.h:307
	}
	else {
		return 0;
200118b4:	4781                	li	a5,0
/home/letsgrillbananas/wsFreedomStudio/embedded-software/bsp/build/debug/./metal/machine.h:309
	}
}
200118b6:	853e                	mv	a0,a5
200118b8:	4472                	lw	s0,28(sp)
200118ba:	6105                	addi	sp,sp,32
200118bc:	8082                	ret

200118be <__metal_driver_cpu_interrupt_controller>:
__metal_driver_cpu_interrupt_controller():
/home/letsgrillbananas/wsFreedomStudio/embedded-software/bsp/build/debug/./metal/machine.h:312

static __inline__ struct metal_interrupt * __metal_driver_cpu_interrupt_controller(struct metal_cpu *cpu)
{
200118be:	1101                	addi	sp,sp,-32
200118c0:	ce22                	sw	s0,28(sp)
200118c2:	1000                	addi	s0,sp,32
200118c4:	fea42623          	sw	a0,-20(s0)
/home/letsgrillbananas/wsFreedomStudio/embedded-software/bsp/build/debug/./metal/machine.h:313
	if ((uintptr_t)cpu == (uintptr_t)&__metal_dt_cpu_0) {
200118c8:	fec42703          	lw	a4,-20(s0)
200118cc:	81018793          	addi	a5,gp,-2032 # 80000498 <__metal_dt_cpu_0>
200118d0:	00f71763          	bne	a4,a5,200118de <__metal_driver_cpu_interrupt_controller+0x20>
/home/letsgrillbananas/wsFreedomStudio/embedded-software/bsp/build/debug/./metal/machine.h:314
		return &__metal_dt_cpu_0_interrupt_controller.controller;
200118d4:	800007b7          	lui	a5,0x80000
200118d8:	09078793          	addi	a5,a5,144 # 80000090 <__global_pointer$+0xfffff408>
200118dc:	a011                	j	200118e0 <__metal_driver_cpu_interrupt_controller+0x22>
/home/letsgrillbananas/wsFreedomStudio/embedded-software/bsp/build/debug/./metal/machine.h:317
	}
	else {
		return NULL;
200118de:	4781                	li	a5,0
/home/letsgrillbananas/wsFreedomStudio/embedded-software/bsp/build/debug/./metal/machine.h:319
	}
}
200118e0:	853e                	mv	a0,a5
200118e2:	4472                	lw	s0,28(sp)
200118e4:	6105                	addi	sp,sp,32
200118e6:	8082                	ret

200118e8 <__metal_driver_cpu_buserror>:
__metal_driver_cpu_buserror():
/home/letsgrillbananas/wsFreedomStudio/embedded-software/bsp/build/debug/./metal/machine.h:332
		return 0;
	}
}

static __inline__ struct metal_buserror * __metal_driver_cpu_buserror(struct metal_cpu *cpu)
{
200118e8:	1101                	addi	sp,sp,-32
200118ea:	ce22                	sw	s0,28(sp)
200118ec:	1000                	addi	s0,sp,32
200118ee:	fea42623          	sw	a0,-20(s0)
/home/letsgrillbananas/wsFreedomStudio/embedded-software/bsp/build/debug/./metal/machine.h:333
	if ((uintptr_t)cpu == (uintptr_t)&__metal_dt_cpu_0) {
200118f2:	fec42703          	lw	a4,-20(s0)
200118f6:	81018793          	addi	a5,gp,-2032 # 80000498 <__metal_dt_cpu_0>
200118fa:	00f71463          	bne	a4,a5,20011902 <__metal_driver_cpu_buserror+0x1a>
/home/letsgrillbananas/wsFreedomStudio/embedded-software/bsp/build/debug/./metal/machine.h:334
		return NULL;
200118fe:	4781                	li	a5,0
20011900:	a011                	j	20011904 <__metal_driver_cpu_buserror+0x1c>
/home/letsgrillbananas/wsFreedomStudio/embedded-software/bsp/build/debug/./metal/machine.h:337
	}
	else {
		return NULL;
20011902:	4781                	li	a5,0
/home/letsgrillbananas/wsFreedomStudio/embedded-software/bsp/build/debug/./metal/machine.h:339
	}
}
20011904:	853e                	mv	a0,a5
20011906:	4472                	lw	s0,28(sp)
20011908:	6105                	addi	sp,sp,32
2001190a:	8082                	ret

2001190c <__metal_driver_cpu_get>:
__metal_driver_cpu_get():
/home/letsgrillbananas/wsFreedomStudio/embedded-software/freedom-metal/src/drivers/riscv_cpu.c:25
extern void __metal_vector_table();
unsigned long long __metal_driver_cpu_mtime_get(struct metal_cpu *cpu);
int __metal_driver_cpu_mtimecmp_set(struct metal_cpu *cpu,
                                    unsigned long long time);

struct metal_cpu *__metal_driver_cpu_get(int hartid) {
2001190c:	1101                	addi	sp,sp,-32
2001190e:	ce22                	sw	s0,28(sp)
20011910:	1000                	addi	s0,sp,32
20011912:	fea42623          	sw	a0,-20(s0)
/home/letsgrillbananas/wsFreedomStudio/embedded-software/freedom-metal/src/drivers/riscv_cpu.c:26
    if (hartid < __METAL_DT_MAX_HARTS) {
20011916:	fec42783          	lw	a5,-20(s0)
2001191a:	00f04c63          	bgtz	a5,20011932 <__metal_driver_cpu_get+0x26>
/home/letsgrillbananas/wsFreedomStudio/embedded-software/freedom-metal/src/drivers/riscv_cpu.c:27
        return &(__metal_cpu_table[hartid]->cpu);
2001191e:	800007b7          	lui	a5,0x80000
20011922:	fec42703          	lw	a4,-20(s0)
20011926:	070a                	slli	a4,a4,0x2
20011928:	48c78793          	addi	a5,a5,1164 # 8000048c <__global_pointer$+0xfffff804>
2001192c:	97ba                	add	a5,a5,a4
2001192e:	439c                	lw	a5,0(a5)
20011930:	a011                	j	20011934 <__metal_driver_cpu_get+0x28>
/home/letsgrillbananas/wsFreedomStudio/embedded-software/freedom-metal/src/drivers/riscv_cpu.c:29
    }
    return (struct metal_cpu *)NULL;
20011932:	4781                	li	a5,0
/home/letsgrillbananas/wsFreedomStudio/embedded-software/freedom-metal/src/drivers/riscv_cpu.c:30
}
20011934:	853e                	mv	a0,a5
20011936:	4472                	lw	s0,28(sp)
20011938:	6105                	addi	sp,sp,32
2001193a:	8082                	ret

2001193c <__metal_myhart_id>:
__metal_myhart_id():
/home/letsgrillbananas/wsFreedomStudio/embedded-software/freedom-metal/src/drivers/riscv_cpu.c:32

uintptr_t __metal_myhart_id(void) {
2001193c:	1101                	addi	sp,sp,-32
2001193e:	ce22                	sw	s0,28(sp)
20011940:	1000                	addi	s0,sp,32
/home/letsgrillbananas/wsFreedomStudio/embedded-software/freedom-metal/src/drivers/riscv_cpu.c:34
    uintptr_t myhart;
    __asm__ volatile("csrr %0, mhartid" : "=r"(myhart));
20011942:	f14027f3          	csrr	a5,mhartid
20011946:	fef42623          	sw	a5,-20(s0)
/home/letsgrillbananas/wsFreedomStudio/embedded-software/freedom-metal/src/drivers/riscv_cpu.c:35
    return myhart;
2001194a:	fec42783          	lw	a5,-20(s0)
/home/letsgrillbananas/wsFreedomStudio/embedded-software/freedom-metal/src/drivers/riscv_cpu.c:36
}
2001194e:	853e                	mv	a0,a5
20011950:	4472                	lw	s0,28(sp)
20011952:	6105                	addi	sp,sp,32
20011954:	8082                	ret

20011956 <__metal_interrupt_global_enable>:
__metal_interrupt_global_enable():
/home/letsgrillbananas/wsFreedomStudio/embedded-software/freedom-metal/src/drivers/riscv_cpu.c:45
    for (ptr = base; ptr < (base + size); ptr++) {
        *ptr = 0;
    }
}

void __metal_interrupt_global_enable(void) {
20011956:	1101                	addi	sp,sp,-32
20011958:	ce22                	sw	s0,28(sp)
2001195a:	1000                	addi	s0,sp,32
/home/letsgrillbananas/wsFreedomStudio/embedded-software/freedom-metal/src/drivers/riscv_cpu.c:47
    uintptr_t m;
    __asm__ volatile("csrrs %0, mstatus, %1"
2001195c:	47a1                	li	a5,8
2001195e:	3007a7f3          	csrrs	a5,mstatus,a5
20011962:	fef42623          	sw	a5,-20(s0)
/home/letsgrillbananas/wsFreedomStudio/embedded-software/freedom-metal/src/drivers/riscv_cpu.c:50
                     : "=r"(m)
                     : "r"(METAL_MIE_INTERRUPT));
}
20011966:	0001                	nop
20011968:	4472                	lw	s0,28(sp)
2001196a:	6105                	addi	sp,sp,32
2001196c:	8082                	ret

2001196e <__metal_interrupt_global_disable>:
__metal_interrupt_global_disable():
/home/letsgrillbananas/wsFreedomStudio/embedded-software/freedom-metal/src/drivers/riscv_cpu.c:52

void __metal_interrupt_global_disable(void) {
2001196e:	1101                	addi	sp,sp,-32
20011970:	ce22                	sw	s0,28(sp)
20011972:	1000                	addi	s0,sp,32
/home/letsgrillbananas/wsFreedomStudio/embedded-software/freedom-metal/src/drivers/riscv_cpu.c:54
    uintptr_t m;
    __asm__ volatile("csrrc %0, mstatus, %1"
20011974:	47a1                	li	a5,8
20011976:	3007b7f3          	csrrc	a5,mstatus,a5
2001197a:	fef42623          	sw	a5,-20(s0)
/home/letsgrillbananas/wsFreedomStudio/embedded-software/freedom-metal/src/drivers/riscv_cpu.c:57
                     : "=r"(m)
                     : "r"(METAL_MIE_INTERRUPT));
}
2001197e:	0001                	nop
20011980:	4472                	lw	s0,28(sp)
20011982:	6105                	addi	sp,sp,32
20011984:	8082                	ret

20011986 <__metal_interrupt_software_enable>:
__metal_interrupt_software_enable():
/home/letsgrillbananas/wsFreedomStudio/embedded-software/freedom-metal/src/drivers/riscv_cpu.c:59

void __metal_interrupt_software_enable(void) {
20011986:	1101                	addi	sp,sp,-32
20011988:	ce22                	sw	s0,28(sp)
2001198a:	1000                	addi	s0,sp,32
/home/letsgrillbananas/wsFreedomStudio/embedded-software/freedom-metal/src/drivers/riscv_cpu.c:61
    uintptr_t m;
    __asm__ volatile("csrrs %0, mie, %1"
2001198c:	47a1                	li	a5,8
2001198e:	3047a7f3          	csrrs	a5,mie,a5
20011992:	fef42623          	sw	a5,-20(s0)
/home/letsgrillbananas/wsFreedomStudio/embedded-software/freedom-metal/src/drivers/riscv_cpu.c:64
                     : "=r"(m)
                     : "r"(METAL_LOCAL_INTERRUPT_SW));
}
20011996:	0001                	nop
20011998:	4472                	lw	s0,28(sp)
2001199a:	6105                	addi	sp,sp,32
2001199c:	8082                	ret

2001199e <__metal_interrupt_software_disable>:
__metal_interrupt_software_disable():
/home/letsgrillbananas/wsFreedomStudio/embedded-software/freedom-metal/src/drivers/riscv_cpu.c:66

void __metal_interrupt_software_disable(void) {
2001199e:	1101                	addi	sp,sp,-32
200119a0:	ce22                	sw	s0,28(sp)
200119a2:	1000                	addi	s0,sp,32
/home/letsgrillbananas/wsFreedomStudio/embedded-software/freedom-metal/src/drivers/riscv_cpu.c:68
    uintptr_t m;
    __asm__ volatile("csrrc %0, mie, %1"
200119a4:	47a1                	li	a5,8
200119a6:	3047b7f3          	csrrc	a5,mie,a5
200119aa:	fef42623          	sw	a5,-20(s0)
/home/letsgrillbananas/wsFreedomStudio/embedded-software/freedom-metal/src/drivers/riscv_cpu.c:71
                     : "=r"(m)
                     : "r"(METAL_LOCAL_INTERRUPT_SW));
}
200119ae:	0001                	nop
200119b0:	4472                	lw	s0,28(sp)
200119b2:	6105                	addi	sp,sp,32
200119b4:	8082                	ret

200119b6 <__metal_interrupt_timer_enable>:
__metal_interrupt_timer_enable():
/home/letsgrillbananas/wsFreedomStudio/embedded-software/freedom-metal/src/drivers/riscv_cpu.c:73

void __metal_interrupt_timer_enable(void) {
200119b6:	1101                	addi	sp,sp,-32
200119b8:	ce22                	sw	s0,28(sp)
200119ba:	1000                	addi	s0,sp,32
/home/letsgrillbananas/wsFreedomStudio/embedded-software/freedom-metal/src/drivers/riscv_cpu.c:75
    uintptr_t m;
    __asm__ volatile("csrrs %0, mie, %1"
200119bc:	08000793          	li	a5,128
200119c0:	3047a7f3          	csrrs	a5,mie,a5
200119c4:	fef42623          	sw	a5,-20(s0)
/home/letsgrillbananas/wsFreedomStudio/embedded-software/freedom-metal/src/drivers/riscv_cpu.c:78
                     : "=r"(m)
                     : "r"(METAL_LOCAL_INTERRUPT_TMR));
}
200119c8:	0001                	nop
200119ca:	4472                	lw	s0,28(sp)
200119cc:	6105                	addi	sp,sp,32
200119ce:	8082                	ret

200119d0 <__metal_interrupt_timer_disable>:
__metal_interrupt_timer_disable():
/home/letsgrillbananas/wsFreedomStudio/embedded-software/freedom-metal/src/drivers/riscv_cpu.c:80

void __metal_interrupt_timer_disable(void) {
200119d0:	1101                	addi	sp,sp,-32
200119d2:	ce22                	sw	s0,28(sp)
200119d4:	1000                	addi	s0,sp,32
/home/letsgrillbananas/wsFreedomStudio/embedded-software/freedom-metal/src/drivers/riscv_cpu.c:82
    uintptr_t m;
    __asm__ volatile("csrrc %0, mie, %1"
200119d6:	08000793          	li	a5,128
200119da:	3047b7f3          	csrrc	a5,mie,a5
200119de:	fef42623          	sw	a5,-20(s0)
/home/letsgrillbananas/wsFreedomStudio/embedded-software/freedom-metal/src/drivers/riscv_cpu.c:85
                     : "=r"(m)
                     : "r"(METAL_LOCAL_INTERRUPT_TMR));
}
200119e2:	0001                	nop
200119e4:	4472                	lw	s0,28(sp)
200119e6:	6105                	addi	sp,sp,32
200119e8:	8082                	ret

200119ea <__metal_interrupt_external_enable>:
__metal_interrupt_external_enable():
/home/letsgrillbananas/wsFreedomStudio/embedded-software/freedom-metal/src/drivers/riscv_cpu.c:87

void __metal_interrupt_external_enable(void) {
200119ea:	1101                	addi	sp,sp,-32
200119ec:	ce22                	sw	s0,28(sp)
200119ee:	1000                	addi	s0,sp,32
/home/letsgrillbananas/wsFreedomStudio/embedded-software/freedom-metal/src/drivers/riscv_cpu.c:89
    uintptr_t m;
    __asm__ volatile("csrrs %0, mie, %1"
200119f0:	6785                	lui	a5,0x1
200119f2:	80078793          	addi	a5,a5,-2048 # 800 <__heap_size>
200119f6:	3047a7f3          	csrrs	a5,mie,a5
200119fa:	fef42623          	sw	a5,-20(s0)
/home/letsgrillbananas/wsFreedomStudio/embedded-software/freedom-metal/src/drivers/riscv_cpu.c:92
                     : "=r"(m)
                     : "r"(METAL_LOCAL_INTERRUPT_EXT));
}
200119fe:	0001                	nop
20011a00:	4472                	lw	s0,28(sp)
20011a02:	6105                	addi	sp,sp,32
20011a04:	8082                	ret

20011a06 <__metal_interrupt_external_disable>:
__metal_interrupt_external_disable():
/home/letsgrillbananas/wsFreedomStudio/embedded-software/freedom-metal/src/drivers/riscv_cpu.c:94

void __metal_interrupt_external_disable(void) {
20011a06:	1101                	addi	sp,sp,-32
20011a08:	ce22                	sw	s0,28(sp)
20011a0a:	1000                	addi	s0,sp,32
/home/letsgrillbananas/wsFreedomStudio/embedded-software/freedom-metal/src/drivers/riscv_cpu.c:96
    unsigned long m;
    __asm__ volatile("csrrc %0, mie, %1"
20011a0c:	6785                	lui	a5,0x1
20011a0e:	80078793          	addi	a5,a5,-2048 # 800 <__heap_size>
20011a12:	3047b7f3          	csrrc	a5,mie,a5
20011a16:	fef42623          	sw	a5,-20(s0)
/home/letsgrillbananas/wsFreedomStudio/embedded-software/freedom-metal/src/drivers/riscv_cpu.c:99
                     : "=r"(m)
                     : "r"(METAL_LOCAL_INTERRUPT_EXT));
}
20011a1a:	0001                	nop
20011a1c:	4472                	lw	s0,28(sp)
20011a1e:	6105                	addi	sp,sp,32
20011a20:	8082                	ret

20011a22 <__metal_interrupt_local_enable>:
__metal_interrupt_local_enable():
/home/letsgrillbananas/wsFreedomStudio/embedded-software/freedom-metal/src/drivers/riscv_cpu.c:101

void __metal_interrupt_local_enable(int id) {
20011a22:	7179                	addi	sp,sp,-48
20011a24:	d622                	sw	s0,44(sp)
20011a26:	1800                	addi	s0,sp,48
20011a28:	fca42e23          	sw	a0,-36(s0)
/home/letsgrillbananas/wsFreedomStudio/embedded-software/freedom-metal/src/drivers/riscv_cpu.c:102
    uintptr_t b = 1 << id;
20011a2c:	fdc42783          	lw	a5,-36(s0)
20011a30:	4705                	li	a4,1
20011a32:	00f717b3          	sll	a5,a4,a5
20011a36:	fef42623          	sw	a5,-20(s0)
/home/letsgrillbananas/wsFreedomStudio/embedded-software/freedom-metal/src/drivers/riscv_cpu.c:104
    uintptr_t m;
    __asm__ volatile("csrrs %0, mie, %1" : "=r"(m) : "r"(b));
20011a3a:	fec42783          	lw	a5,-20(s0)
20011a3e:	3047a7f3          	csrrs	a5,mie,a5
20011a42:	fef42423          	sw	a5,-24(s0)
/home/letsgrillbananas/wsFreedomStudio/embedded-software/freedom-metal/src/drivers/riscv_cpu.c:105
}
20011a46:	0001                	nop
20011a48:	5432                	lw	s0,44(sp)
20011a4a:	6145                	addi	sp,sp,48
20011a4c:	8082                	ret

20011a4e <__metal_interrupt_local_disable>:
__metal_interrupt_local_disable():
/home/letsgrillbananas/wsFreedomStudio/embedded-software/freedom-metal/src/drivers/riscv_cpu.c:107

void __metal_interrupt_local_disable(int id) {
20011a4e:	7179                	addi	sp,sp,-48
20011a50:	d622                	sw	s0,44(sp)
20011a52:	1800                	addi	s0,sp,48
20011a54:	fca42e23          	sw	a0,-36(s0)
/home/letsgrillbananas/wsFreedomStudio/embedded-software/freedom-metal/src/drivers/riscv_cpu.c:108
    uintptr_t b = 1 << id;
20011a58:	fdc42783          	lw	a5,-36(s0)
20011a5c:	4705                	li	a4,1
20011a5e:	00f717b3          	sll	a5,a4,a5
20011a62:	fef42623          	sw	a5,-20(s0)
/home/letsgrillbananas/wsFreedomStudio/embedded-software/freedom-metal/src/drivers/riscv_cpu.c:110
    uintptr_t m;
    __asm__ volatile("csrrc %0, mie, %1" : "=r"(m) : "r"(b));
20011a66:	fec42783          	lw	a5,-20(s0)
20011a6a:	3047b7f3          	csrrc	a5,mie,a5
20011a6e:	fef42423          	sw	a5,-24(s0)
/home/letsgrillbananas/wsFreedomStudio/embedded-software/freedom-metal/src/drivers/riscv_cpu.c:111
}
20011a72:	0001                	nop
20011a74:	5432                	lw	s0,44(sp)
20011a76:	6145                	addi	sp,sp,48
20011a78:	8082                	ret

20011a7a <__metal_default_exception_handler>:
__metal_default_exception_handler():
/home/letsgrillbananas/wsFreedomStudio/embedded-software/freedom-metal/src/drivers/riscv_cpu.c:113

void __metal_default_exception_handler(struct metal_cpu *cpu, int ecode) {
20011a7a:	1101                	addi	sp,sp,-32
20011a7c:	ce06                	sw	ra,28(sp)
20011a7e:	cc22                	sw	s0,24(sp)
20011a80:	1000                	addi	s0,sp,32
20011a82:	fea42623          	sw	a0,-20(s0)
20011a86:	feb42423          	sw	a1,-24(s0)
/home/letsgrillbananas/wsFreedomStudio/embedded-software/freedom-metal/src/drivers/riscv_cpu.c:114
    metal_shutdown(100);
20011a8a:	06400513          	li	a0,100
20011a8e:	1f4020ef          	jal	ra,20013c82 <metal_shutdown>

20011a92 <__metal_default_interrupt_handler>:
__metal_default_interrupt_handler():
/home/letsgrillbananas/wsFreedomStudio/embedded-software/freedom-metal/src/drivers/riscv_cpu.c:117
}

void __metal_default_interrupt_handler(int id, void *priv) {
20011a92:	1101                	addi	sp,sp,-32
20011a94:	ce06                	sw	ra,28(sp)
20011a96:	cc22                	sw	s0,24(sp)
20011a98:	1000                	addi	s0,sp,32
20011a9a:	fea42623          	sw	a0,-20(s0)
20011a9e:	feb42423          	sw	a1,-24(s0)
/home/letsgrillbananas/wsFreedomStudio/embedded-software/freedom-metal/src/drivers/riscv_cpu.c:118
    metal_shutdown(200);
20011aa2:	0c800513          	li	a0,200
20011aa6:	1dc020ef          	jal	ra,20013c82 <metal_shutdown>

20011aaa <metal_interrupt_vector_handler>:
metal_interrupt_vector_handler():
/home/letsgrillbananas/wsFreedomStudio/embedded-software/freedom-metal/src/drivers/riscv_cpu.c:122
}

/* The metal_interrupt_vector_handler() function can be redefined. */
void __attribute__((weak, interrupt)) metal_interrupt_vector_handler(void) {
20011aaa:	715d                	addi	sp,sp,-80
20011aac:	c686                	sw	ra,76(sp)
20011aae:	c496                	sw	t0,72(sp)
20011ab0:	c29a                	sw	t1,68(sp)
20011ab2:	c09e                	sw	t2,64(sp)
20011ab4:	de22                	sw	s0,60(sp)
20011ab6:	dc2a                	sw	a0,56(sp)
20011ab8:	da2e                	sw	a1,52(sp)
20011aba:	d832                	sw	a2,48(sp)
20011abc:	d636                	sw	a3,44(sp)
20011abe:	d43a                	sw	a4,40(sp)
20011ac0:	d23e                	sw	a5,36(sp)
20011ac2:	d042                	sw	a6,32(sp)
20011ac4:	ce46                	sw	a7,28(sp)
20011ac6:	cc72                	sw	t3,24(sp)
20011ac8:	ca76                	sw	t4,20(sp)
20011aca:	c87a                	sw	t5,16(sp)
20011acc:	c67e                	sw	t6,12(sp)
20011ace:	0880                	addi	s0,sp,80
/home/letsgrillbananas/wsFreedomStudio/embedded-software/freedom-metal/src/drivers/riscv_cpu.c:123
    metal_shutdown(300);
20011ad0:	12c00513          	li	a0,300
20011ad4:	1ae020ef          	jal	ra,20013c82 <metal_shutdown>

20011ad8 <metal_software_interrupt_vector_handler>:
metal_software_interrupt_vector_handler():
/home/letsgrillbananas/wsFreedomStudio/embedded-software/freedom-metal/src/drivers/riscv_cpu.c:128
}

/* The metal_software_interrupt_vector_handler() function can be redefined. */
void __attribute__((weak, interrupt))
metal_software_interrupt_vector_handler(void) {
20011ad8:	711d                	addi	sp,sp,-96
20011ada:	ce86                	sw	ra,92(sp)
20011adc:	cc96                	sw	t0,88(sp)
20011ade:	ca9a                	sw	t1,84(sp)
20011ae0:	c89e                	sw	t2,80(sp)
20011ae2:	c6a2                	sw	s0,76(sp)
20011ae4:	c4aa                	sw	a0,72(sp)
20011ae6:	c2ae                	sw	a1,68(sp)
20011ae8:	c0b2                	sw	a2,64(sp)
20011aea:	de36                	sw	a3,60(sp)
20011aec:	dc3a                	sw	a4,56(sp)
20011aee:	da3e                	sw	a5,52(sp)
20011af0:	d842                	sw	a6,48(sp)
20011af2:	d646                	sw	a7,44(sp)
20011af4:	d472                	sw	t3,40(sp)
20011af6:	d276                	sw	t4,36(sp)
20011af8:	d07a                	sw	t5,32(sp)
20011afa:	ce7e                	sw	t6,28(sp)
20011afc:	1080                	addi	s0,sp,96
/home/letsgrillbananas/wsFreedomStudio/embedded-software/freedom-metal/src/drivers/riscv_cpu.c:129
    __METAL_IRQ_VECTOR_HANDLER(METAL_INTERRUPT_ID_SW);
20011afe:	3d3d                	jal	2001193c <__metal_myhart_id>
20011b00:	872a                	mv	a4,a0
20011b02:	800007b7          	lui	a5,0x80000
20011b06:	070a                	slli	a4,a4,0x2
20011b08:	48c78793          	addi	a5,a5,1164 # 8000048c <__global_pointer$+0xfffff804>
20011b0c:	97ba                	add	a5,a5,a4
20011b0e:	439c                	lw	a5,0(a5)
20011b10:	faf42623          	sw	a5,-84(s0)
20011b14:	fac42783          	lw	a5,-84(s0)
20011b18:	c785                	beqz	a5,20011b40 <metal_software_interrupt_vector_handler+0x68>
/home/letsgrillbananas/wsFreedomStudio/embedded-software/freedom-metal/src/drivers/riscv_cpu.c:129 (discriminator 1)
20011b1a:	fac42503          	lw	a0,-84(s0)
20011b1e:	3345                	jal	200118be <__metal_driver_cpu_interrupt_controller>
20011b20:	faa42423          	sw	a0,-88(s0)
20011b24:	fa842783          	lw	a5,-88(s0)
20011b28:	0e07a783          	lw	a5,224(a5)
20011b2c:	faf42223          	sw	a5,-92(s0)
20011b30:	fa842783          	lw	a5,-88(s0)
20011b34:	0d87a783          	lw	a5,216(a5)
20011b38:	fa442583          	lw	a1,-92(s0)
20011b3c:	450d                	li	a0,3
20011b3e:	9782                	jalr	a5
/home/letsgrillbananas/wsFreedomStudio/embedded-software/freedom-metal/src/drivers/riscv_cpu.c:130
}
20011b40:	0001                	nop
20011b42:	40f6                	lw	ra,92(sp)
20011b44:	42e6                	lw	t0,88(sp)
20011b46:	4356                	lw	t1,84(sp)
20011b48:	43c6                	lw	t2,80(sp)
20011b4a:	4436                	lw	s0,76(sp)
20011b4c:	4526                	lw	a0,72(sp)
20011b4e:	4596                	lw	a1,68(sp)
20011b50:	4606                	lw	a2,64(sp)
20011b52:	56f2                	lw	a3,60(sp)
20011b54:	5762                	lw	a4,56(sp)
20011b56:	57d2                	lw	a5,52(sp)
20011b58:	5842                	lw	a6,48(sp)
20011b5a:	58b2                	lw	a7,44(sp)
20011b5c:	5e22                	lw	t3,40(sp)
20011b5e:	5e92                	lw	t4,36(sp)
20011b60:	5f02                	lw	t5,32(sp)
20011b62:	4ff2                	lw	t6,28(sp)
20011b64:	6125                	addi	sp,sp,96
20011b66:	30200073          	mret

20011b6a <__metal_default_sw_handler>:
__metal_default_sw_handler():
/home/letsgrillbananas/wsFreedomStudio/embedded-software/freedom-metal/src/drivers/riscv_cpu.c:132

void __metal_default_sw_handler(int id, void *priv) {
20011b6a:	7179                	addi	sp,sp,-48
20011b6c:	d606                	sw	ra,44(sp)
20011b6e:	d422                	sw	s0,40(sp)
20011b70:	1800                	addi	s0,sp,48
20011b72:	fca42e23          	sw	a0,-36(s0)
20011b76:	fcb42c23          	sw	a1,-40(s0)
/home/letsgrillbananas/wsFreedomStudio/embedded-software/freedom-metal/src/drivers/riscv_cpu.c:135
    uintptr_t mcause;
    struct __metal_driver_riscv_cpu_intc *intc;
    struct __metal_driver_cpu *cpu = __metal_cpu_table[__metal_myhart_id()];
20011b7a:	33c9                	jal	2001193c <__metal_myhart_id>
20011b7c:	872a                	mv	a4,a0
20011b7e:	800007b7          	lui	a5,0x80000
20011b82:	070a                	slli	a4,a4,0x2
20011b84:	48c78793          	addi	a5,a5,1164 # 8000048c <__global_pointer$+0xfffff804>
20011b88:	97ba                	add	a5,a5,a4
20011b8a:	439c                	lw	a5,0(a5)
20011b8c:	fef42623          	sw	a5,-20(s0)
/home/letsgrillbananas/wsFreedomStudio/embedded-software/freedom-metal/src/drivers/riscv_cpu.c:137

    __asm__ volatile("csrr %0, mcause" : "=r"(mcause));
20011b90:	342027f3          	csrr	a5,mcause
20011b94:	fef42423          	sw	a5,-24(s0)
/home/letsgrillbananas/wsFreedomStudio/embedded-software/freedom-metal/src/drivers/riscv_cpu.c:138
    if (cpu) {
20011b98:	fec42783          	lw	a5,-20(s0)
20011b9c:	c795                	beqz	a5,20011bc8 <__metal_default_sw_handler+0x5e>
/home/letsgrillbananas/wsFreedomStudio/embedded-software/freedom-metal/src/drivers/riscv_cpu.c:140
        intc = (struct __metal_driver_riscv_cpu_intc *)
            __metal_driver_cpu_interrupt_controller((struct metal_cpu *)cpu);
20011b9e:	fec42503          	lw	a0,-20(s0)
20011ba2:	3b31                	jal	200118be <__metal_driver_cpu_interrupt_controller>
20011ba4:	fea42223          	sw	a0,-28(s0)
/home/letsgrillbananas/wsFreedomStudio/embedded-software/freedom-metal/src/drivers/riscv_cpu.c:141
        intc->metal_exception_table[mcause & METAL_MCAUSE_CAUSE](
20011ba8:	fe842783          	lw	a5,-24(s0)
20011bac:	3ff7f793          	andi	a5,a5,1023
20011bb0:	fe442703          	lw	a4,-28(s0)
20011bb4:	0e878793          	addi	a5,a5,232
20011bb8:	078a                	slli	a5,a5,0x2
20011bba:	97ba                	add	a5,a5,a4
20011bbc:	439c                	lw	a5,0(a5)
20011bbe:	fdc42583          	lw	a1,-36(s0)
20011bc2:	fec42503          	lw	a0,-20(s0)
20011bc6:	9782                	jalr	a5
/home/letsgrillbananas/wsFreedomStudio/embedded-software/freedom-metal/src/drivers/riscv_cpu.c:144
            (struct metal_cpu *)cpu, id);
    }
}
20011bc8:	0001                	nop
20011bca:	50b2                	lw	ra,44(sp)
20011bcc:	5422                	lw	s0,40(sp)
20011bce:	6145                	addi	sp,sp,48
20011bd0:	8082                	ret

20011bd2 <metal_timer_interrupt_vector_handler>:
metal_timer_interrupt_vector_handler():
/home/letsgrillbananas/wsFreedomStudio/embedded-software/freedom-metal/src/drivers/riscv_cpu.c:148

/* The metal_timer_interrupt_vector_handler() function can be redefined. */
void __attribute__((weak, interrupt))
metal_timer_interrupt_vector_handler(void) {
20011bd2:	711d                	addi	sp,sp,-96
20011bd4:	ce86                	sw	ra,92(sp)
20011bd6:	cc96                	sw	t0,88(sp)
20011bd8:	ca9a                	sw	t1,84(sp)
20011bda:	c89e                	sw	t2,80(sp)
20011bdc:	c6a2                	sw	s0,76(sp)
20011bde:	c4aa                	sw	a0,72(sp)
20011be0:	c2ae                	sw	a1,68(sp)
20011be2:	c0b2                	sw	a2,64(sp)
20011be4:	de36                	sw	a3,60(sp)
20011be6:	dc3a                	sw	a4,56(sp)
20011be8:	da3e                	sw	a5,52(sp)
20011bea:	d842                	sw	a6,48(sp)
20011bec:	d646                	sw	a7,44(sp)
20011bee:	d472                	sw	t3,40(sp)
20011bf0:	d276                	sw	t4,36(sp)
20011bf2:	d07a                	sw	t5,32(sp)
20011bf4:	ce7e                	sw	t6,28(sp)
20011bf6:	1080                	addi	s0,sp,96
/home/letsgrillbananas/wsFreedomStudio/embedded-software/freedom-metal/src/drivers/riscv_cpu.c:149
    __METAL_IRQ_VECTOR_HANDLER(METAL_INTERRUPT_ID_TMR);
20011bf8:	3391                	jal	2001193c <__metal_myhart_id>
20011bfa:	872a                	mv	a4,a0
20011bfc:	800007b7          	lui	a5,0x80000
20011c00:	070a                	slli	a4,a4,0x2
20011c02:	48c78793          	addi	a5,a5,1164 # 8000048c <__global_pointer$+0xfffff804>
20011c06:	97ba                	add	a5,a5,a4
20011c08:	439c                	lw	a5,0(a5)
20011c0a:	faf42623          	sw	a5,-84(s0)
20011c0e:	fac42783          	lw	a5,-84(s0)
20011c12:	c785                	beqz	a5,20011c3a <metal_timer_interrupt_vector_handler+0x68>
/home/letsgrillbananas/wsFreedomStudio/embedded-software/freedom-metal/src/drivers/riscv_cpu.c:149 (discriminator 1)
20011c14:	fac42503          	lw	a0,-84(s0)
20011c18:	315d                	jal	200118be <__metal_driver_cpu_interrupt_controller>
20011c1a:	faa42423          	sw	a0,-88(s0)
20011c1e:	fa842783          	lw	a5,-88(s0)
20011c22:	1407a783          	lw	a5,320(a5)
20011c26:	faf42223          	sw	a5,-92(s0)
20011c2a:	fa842783          	lw	a5,-88(s0)
20011c2e:	1387a783          	lw	a5,312(a5)
20011c32:	fa442583          	lw	a1,-92(s0)
20011c36:	451d                	li	a0,7
20011c38:	9782                	jalr	a5
/home/letsgrillbananas/wsFreedomStudio/embedded-software/freedom-metal/src/drivers/riscv_cpu.c:150
}
20011c3a:	0001                	nop
20011c3c:	40f6                	lw	ra,92(sp)
20011c3e:	42e6                	lw	t0,88(sp)
20011c40:	4356                	lw	t1,84(sp)
20011c42:	43c6                	lw	t2,80(sp)
20011c44:	4436                	lw	s0,76(sp)
20011c46:	4526                	lw	a0,72(sp)
20011c48:	4596                	lw	a1,68(sp)
20011c4a:	4606                	lw	a2,64(sp)
20011c4c:	56f2                	lw	a3,60(sp)
20011c4e:	5762                	lw	a4,56(sp)
20011c50:	57d2                	lw	a5,52(sp)
20011c52:	5842                	lw	a6,48(sp)
20011c54:	58b2                	lw	a7,44(sp)
20011c56:	5e22                	lw	t3,40(sp)
20011c58:	5e92                	lw	t4,36(sp)
20011c5a:	5f02                	lw	t5,32(sp)
20011c5c:	4ff2                	lw	t6,28(sp)
20011c5e:	6125                	addi	sp,sp,96
20011c60:	30200073          	mret

20011c64 <__metal_default_beu_handler>:
__metal_default_beu_handler():
/home/letsgrillbananas/wsFreedomStudio/embedded-software/freedom-metal/src/drivers/riscv_cpu.c:152

void __metal_default_beu_handler(int id, void *priv) {}
20011c64:	1101                	addi	sp,sp,-32
20011c66:	ce22                	sw	s0,28(sp)
20011c68:	1000                	addi	s0,sp,32
20011c6a:	fea42623          	sw	a0,-20(s0)
20011c6e:	feb42423          	sw	a1,-24(s0)
20011c72:	0001                	nop
20011c74:	4472                	lw	s0,28(sp)
20011c76:	6105                	addi	sp,sp,32
20011c78:	8082                	ret

20011c7a <__metal_default_timer_handler>:
__metal_default_timer_handler():
/home/letsgrillbananas/wsFreedomStudio/embedded-software/freedom-metal/src/drivers/riscv_cpu.c:154

void __metal_default_timer_handler(int id, void *priv) {
20011c7a:	7179                	addi	sp,sp,-48
20011c7c:	d606                	sw	ra,44(sp)
20011c7e:	d422                	sw	s0,40(sp)
20011c80:	1800                	addi	s0,sp,48
20011c82:	fca42e23          	sw	a0,-36(s0)
20011c86:	fcb42c23          	sw	a1,-40(s0)
/home/letsgrillbananas/wsFreedomStudio/embedded-software/freedom-metal/src/drivers/riscv_cpu.c:155
    struct metal_cpu *cpu = __metal_driver_cpu_get(__metal_myhart_id());
20011c8a:	394d                	jal	2001193c <__metal_myhart_id>
20011c8c:	87aa                	mv	a5,a0
20011c8e:	853e                	mv	a0,a5
20011c90:	39b5                	jal	2001190c <__metal_driver_cpu_get>
20011c92:	fea42623          	sw	a0,-20(s0)
/home/letsgrillbananas/wsFreedomStudio/embedded-software/freedom-metal/src/drivers/riscv_cpu.c:156
    unsigned long long time = __metal_driver_cpu_mtime_get(cpu);
20011c96:	fec42503          	lw	a0,-20(s0)
20011c9a:	25a010ef          	jal	ra,20012ef4 <__metal_driver_cpu_mtime_get>
20011c9e:	fea42023          	sw	a0,-32(s0)
20011ca2:	feb42223          	sw	a1,-28(s0)
/home/letsgrillbananas/wsFreedomStudio/embedded-software/freedom-metal/src/drivers/riscv_cpu.c:159

    /* Set a 10 cycle timer */
    __metal_driver_cpu_mtimecmp_set(cpu, time + 10);
20011ca6:	fe042783          	lw	a5,-32(s0)
20011caa:	fe442803          	lw	a6,-28(s0)
20011cae:	45a9                	li	a1,10
20011cb0:	4601                	li	a2,0
20011cb2:	00b786b3          	add	a3,a5,a1
20011cb6:	8536                	mv	a0,a3
20011cb8:	00f53533          	sltu	a0,a0,a5
20011cbc:	00c80733          	add	a4,a6,a2
20011cc0:	00e507b3          	add	a5,a0,a4
20011cc4:	873e                	mv	a4,a5
20011cc6:	87b6                	mv	a5,a3
20011cc8:	883a                	mv	a6,a4
20011cca:	85be                	mv	a1,a5
20011ccc:	8642                	mv	a2,a6
20011cce:	fec42503          	lw	a0,-20(s0)
20011cd2:	288010ef          	jal	ra,20012f5a <__metal_driver_cpu_mtimecmp_set>
/home/letsgrillbananas/wsFreedomStudio/embedded-software/freedom-metal/src/drivers/riscv_cpu.c:160
}
20011cd6:	0001                	nop
20011cd8:	50b2                	lw	ra,44(sp)
20011cda:	5422                	lw	s0,40(sp)
20011cdc:	6145                	addi	sp,sp,48
20011cde:	8082                	ret
	...

20011d00 <__metal_exception_handler>:
__metal_exception_handler():
/home/letsgrillbananas/wsFreedomStudio/embedded-software/freedom-metal/src/drivers/riscv_cpu.c:169
metal_external_interrupt_vector_handler(void) {
    __METAL_IRQ_VECTOR_HANDLER(METAL_INTERRUPT_ID_EXT);
}

void __metal_exception_handler(void) __attribute__((interrupt, aligned(128)));
void __metal_exception_handler(void) {
20011d00:	7119                	addi	sp,sp,-128
20011d02:	de86                	sw	ra,124(sp)
20011d04:	dc96                	sw	t0,120(sp)
20011d06:	da9a                	sw	t1,116(sp)
20011d08:	d89e                	sw	t2,112(sp)
20011d0a:	d6a2                	sw	s0,108(sp)
20011d0c:	d4aa                	sw	a0,104(sp)
20011d0e:	d2ae                	sw	a1,100(sp)
20011d10:	d0b2                	sw	a2,96(sp)
20011d12:	ceb6                	sw	a3,92(sp)
20011d14:	ccba                	sw	a4,88(sp)
20011d16:	cabe                	sw	a5,84(sp)
20011d18:	c8c2                	sw	a6,80(sp)
20011d1a:	c6c6                	sw	a7,76(sp)
20011d1c:	c4f2                	sw	t3,72(sp)
20011d1e:	c2f6                	sw	t4,68(sp)
20011d20:	c0fa                	sw	t5,64(sp)
20011d22:	de7e                	sw	t6,60(sp)
20011d24:	0100                	addi	s0,sp,128
/home/letsgrillbananas/wsFreedomStudio/embedded-software/freedom-metal/src/drivers/riscv_cpu.c:174
    int id;
    void *priv;
    uintptr_t mcause, mepc, mtval, mtvec;
    struct __metal_driver_riscv_cpu_intc *intc;
    struct __metal_driver_cpu *cpu = __metal_cpu_table[__metal_myhart_id()];
20011d26:	3919                	jal	2001193c <__metal_myhart_id>
20011d28:	872a                	mv	a4,a0
20011d2a:	800007b7          	lui	a5,0x80000
20011d2e:	070a                	slli	a4,a4,0x2
20011d30:	48c78793          	addi	a5,a5,1164 # 8000048c <__global_pointer$+0xfffff804>
20011d34:	97ba                	add	a5,a5,a4
20011d36:	439c                	lw	a5,0(a5)
20011d38:	faf42623          	sw	a5,-84(s0)
/home/letsgrillbananas/wsFreedomStudio/embedded-software/freedom-metal/src/drivers/riscv_cpu.c:176

    __asm__ volatile("csrr %0, mcause" : "=r"(mcause));
20011d3c:	342027f3          	csrr	a5,mcause
20011d40:	faf42423          	sw	a5,-88(s0)
/home/letsgrillbananas/wsFreedomStudio/embedded-software/freedom-metal/src/drivers/riscv_cpu.c:177
    __asm__ volatile("csrr %0, mepc" : "=r"(mepc));
20011d44:	341027f3          	csrr	a5,mepc
20011d48:	faf42223          	sw	a5,-92(s0)
/home/letsgrillbananas/wsFreedomStudio/embedded-software/freedom-metal/src/drivers/riscv_cpu.c:178
    __asm__ volatile("csrr %0, mtval" : "=r"(mtval));
20011d4c:	343027f3          	csrr	a5,mtval
20011d50:	faf42023          	sw	a5,-96(s0)
/home/letsgrillbananas/wsFreedomStudio/embedded-software/freedom-metal/src/drivers/riscv_cpu.c:179
    __asm__ volatile("csrr %0, mtvec" : "=r"(mtvec));
20011d54:	305027f3          	csrr	a5,mtvec
20011d58:	f8f42e23          	sw	a5,-100(s0)
/home/letsgrillbananas/wsFreedomStudio/embedded-software/freedom-metal/src/drivers/riscv_cpu.c:181

    if (cpu) {
20011d5c:	fac42783          	lw	a5,-84(s0)
20011d60:	cbf5                	beqz	a5,20011e54 <__metal_exception_handler+0x154>
/home/letsgrillbananas/wsFreedomStudio/embedded-software/freedom-metal/src/drivers/riscv_cpu.c:183
        intc = (struct __metal_driver_riscv_cpu_intc *)
            __metal_driver_cpu_interrupt_controller((struct metal_cpu *)cpu);
20011d62:	fac42503          	lw	a0,-84(s0)
20011d66:	3ea1                	jal	200118be <__metal_driver_cpu_interrupt_controller>
20011d68:	f8a42c23          	sw	a0,-104(s0)
/home/letsgrillbananas/wsFreedomStudio/embedded-software/freedom-metal/src/drivers/riscv_cpu.c:184
        id = mcause & METAL_MCAUSE_CAUSE;
20011d6c:	fa842783          	lw	a5,-88(s0)
20011d70:	3ff7f793          	andi	a5,a5,1023
20011d74:	f8f42a23          	sw	a5,-108(s0)
/home/letsgrillbananas/wsFreedomStudio/embedded-software/freedom-metal/src/drivers/riscv_cpu.c:185
        if (mcause & METAL_MCAUSE_INTR) {
20011d78:	fa842783          	lw	a5,-88(s0)
20011d7c:	0a07de63          	bgez	a5,20011e38 <__metal_exception_handler+0x138>
/home/letsgrillbananas/wsFreedomStudio/embedded-software/freedom-metal/src/drivers/riscv_cpu.c:186
            if (id == METAL_INTERRUPT_ID_BEU) {
20011d80:	f9442703          	lw	a4,-108(s0)
20011d84:	08000793          	li	a5,128
20011d88:	02f71263          	bne	a4,a5,20011dac <__metal_exception_handler+0xac>
/home/letsgrillbananas/wsFreedomStudio/embedded-software/freedom-metal/src/drivers/riscv_cpu.c:187
                priv = intc->metal_int_beu.exint_data;
20011d8c:	f9842783          	lw	a5,-104(s0)
20011d90:	3987a783          	lw	a5,920(a5)
20011d94:	f8f42823          	sw	a5,-112(s0)
/home/letsgrillbananas/wsFreedomStudio/embedded-software/freedom-metal/src/drivers/riscv_cpu.c:188
                intc->metal_int_beu.handler(id, priv);
20011d98:	f9842783          	lw	a5,-104(s0)
20011d9c:	3907a783          	lw	a5,912(a5)
20011da0:	f9042583          	lw	a1,-112(s0)
20011da4:	f9442503          	lw	a0,-108(s0)
20011da8:	9782                	jalr	a5
/home/letsgrillbananas/wsFreedomStudio/embedded-software/freedom-metal/src/drivers/riscv_cpu.c:189
                return;
20011daa:	a06d                	j	20011e54 <__metal_exception_handler+0x154>
/home/letsgrillbananas/wsFreedomStudio/embedded-software/freedom-metal/src/drivers/riscv_cpu.c:191
            }
            if ((id < METAL_INTERRUPT_ID_CSW) ||
20011dac:	f9442703          	lw	a4,-108(s0)
20011db0:	47ad                	li	a5,11
20011db2:	00e7d763          	bge	a5,a4,20011dc0 <__metal_exception_handler+0xc0>
/home/letsgrillbananas/wsFreedomStudio/embedded-software/freedom-metal/src/drivers/riscv_cpu.c:192 (discriminator 1)
                ((mtvec & METAL_MTVEC_MASK) == METAL_MTVEC_DIRECT)) {
20011db6:	f9c42783          	lw	a5,-100(s0)
20011dba:	03f7f793          	andi	a5,a5,63
/home/letsgrillbananas/wsFreedomStudio/embedded-software/freedom-metal/src/drivers/riscv_cpu.c:191 (discriminator 1)
            if ((id < METAL_INTERRUPT_ID_CSW) ||
20011dbe:	ef9d                	bnez	a5,20011dfc <__metal_exception_handler+0xfc>
/home/letsgrillbananas/wsFreedomStudio/embedded-software/freedom-metal/src/drivers/riscv_cpu.c:193
                priv = intc->metal_int_table[id].exint_data;
20011dc0:	f9842683          	lw	a3,-104(s0)
20011dc4:	f9442703          	lw	a4,-108(s0)
20011dc8:	87ba                	mv	a5,a4
20011dca:	0786                	slli	a5,a5,0x1
20011dcc:	97ba                	add	a5,a5,a4
20011dce:	078e                	slli	a5,a5,0x3
20011dd0:	97b6                	add	a5,a5,a3
20011dd2:	0987a783          	lw	a5,152(a5)
20011dd6:	f8f42823          	sw	a5,-112(s0)
/home/letsgrillbananas/wsFreedomStudio/embedded-software/freedom-metal/src/drivers/riscv_cpu.c:194
                intc->metal_int_table[id].handler(id, priv);
20011dda:	f9842683          	lw	a3,-104(s0)
20011dde:	f9442703          	lw	a4,-108(s0)
20011de2:	87ba                	mv	a5,a4
20011de4:	0786                	slli	a5,a5,0x1
20011de6:	97ba                	add	a5,a5,a4
20011de8:	078e                	slli	a5,a5,0x3
20011dea:	97b6                	add	a5,a5,a3
20011dec:	0907a783          	lw	a5,144(a5)
20011df0:	f9042583          	lw	a1,-112(s0)
20011df4:	f9442503          	lw	a0,-108(s0)
20011df8:	9782                	jalr	a5
/home/letsgrillbananas/wsFreedomStudio/embedded-software/freedom-metal/src/drivers/riscv_cpu.c:195
                return;
20011dfa:	a8a9                	j	20011e54 <__metal_exception_handler+0x154>
/home/letsgrillbananas/wsFreedomStudio/embedded-software/freedom-metal/src/drivers/riscv_cpu.c:197
            }
            if ((mtvec & METAL_MTVEC_MASK) == METAL_MTVEC_CLIC) {
20011dfc:	f9c42783          	lw	a5,-100(s0)
20011e00:	03f7f713          	andi	a4,a5,63
20011e04:	4789                	li	a5,2
20011e06:	04f71763          	bne	a4,a5,20011e54 <__metal_exception_handler+0x154>
/home/letsgrillbananas/wsFreedomStudio/embedded-software/freedom-metal/src/drivers/riscv_cpu.c:201
                uintptr_t mtvt;
                metal_interrupt_handler_t mtvt_handler;

                __asm__ volatile("csrr %0, 0x307" : "=r"(mtvt));
20011e0a:	307027f3          	csrr	a5,mtvt
20011e0e:	f8f42623          	sw	a5,-116(s0)
/home/letsgrillbananas/wsFreedomStudio/embedded-software/freedom-metal/src/drivers/riscv_cpu.c:202
                priv = intc->metal_int_table[METAL_INTERRUPT_ID_SW].sub_int;
20011e12:	f9842783          	lw	a5,-104(s0)
20011e16:	0dc7a783          	lw	a5,220(a5)
20011e1a:	f8f42823          	sw	a5,-112(s0)
/home/letsgrillbananas/wsFreedomStudio/embedded-software/freedom-metal/src/drivers/riscv_cpu.c:203
                mtvt_handler = (metal_interrupt_handler_t) * (uintptr_t *)mtvt;
20011e1e:	f8c42783          	lw	a5,-116(s0)
20011e22:	439c                	lw	a5,0(a5)
20011e24:	f8f42423          	sw	a5,-120(s0)
/home/letsgrillbananas/wsFreedomStudio/embedded-software/freedom-metal/src/drivers/riscv_cpu.c:204
                mtvt_handler(id, priv);
20011e28:	f8842783          	lw	a5,-120(s0)
20011e2c:	f9042583          	lw	a1,-112(s0)
20011e30:	f9442503          	lw	a0,-108(s0)
20011e34:	9782                	jalr	a5
/home/letsgrillbananas/wsFreedomStudio/embedded-software/freedom-metal/src/drivers/riscv_cpu.c:205
                return;
20011e36:	a839                	j	20011e54 <__metal_exception_handler+0x154>
/home/letsgrillbananas/wsFreedomStudio/embedded-software/freedom-metal/src/drivers/riscv_cpu.c:208
            }
        } else {
            intc->metal_exception_table[id]((struct metal_cpu *)cpu, id);
20011e38:	f9842703          	lw	a4,-104(s0)
20011e3c:	f9442783          	lw	a5,-108(s0)
20011e40:	0e878793          	addi	a5,a5,232
20011e44:	078a                	slli	a5,a5,0x2
20011e46:	97ba                	add	a5,a5,a4
20011e48:	439c                	lw	a5,0(a5)
20011e4a:	f9442583          	lw	a1,-108(s0)
20011e4e:	fac42503          	lw	a0,-84(s0)
20011e52:	9782                	jalr	a5
/home/letsgrillbananas/wsFreedomStudio/embedded-software/freedom-metal/src/drivers/riscv_cpu.c:211
        }
    }
}
20011e54:	50f6                	lw	ra,124(sp)
20011e56:	52e6                	lw	t0,120(sp)
20011e58:	5356                	lw	t1,116(sp)
20011e5a:	53c6                	lw	t2,112(sp)
20011e5c:	5436                	lw	s0,108(sp)
20011e5e:	5526                	lw	a0,104(sp)
20011e60:	5596                	lw	a1,100(sp)
20011e62:	5606                	lw	a2,96(sp)
20011e64:	46f6                	lw	a3,92(sp)
20011e66:	4766                	lw	a4,88(sp)
20011e68:	47d6                	lw	a5,84(sp)
20011e6a:	4846                	lw	a6,80(sp)
20011e6c:	48b6                	lw	a7,76(sp)
20011e6e:	4e26                	lw	t3,72(sp)
20011e70:	4e96                	lw	t4,68(sp)
20011e72:	4f06                	lw	t5,64(sp)
20011e74:	5ff2                	lw	t6,60(sp)
20011e76:	6109                	addi	sp,sp,128
20011e78:	30200073          	mret
	...

20011ef6 <metal_lc0_interrupt_vector_handler>:
metal_lc0_interrupt_vector_handler():
/home/letsgrillbananas/wsFreedomStudio/embedded-software/freedom-metal/src/drivers/riscv_cpu.c:214

/* The metal_lc0_interrupt_vector_handler() function can be redefined. */
void __attribute__((weak, interrupt)) metal_lc0_interrupt_vector_handler(void) {
20011ef6:	711d                	addi	sp,sp,-96
20011ef8:	ce86                	sw	ra,92(sp)
20011efa:	cc96                	sw	t0,88(sp)
20011efc:	ca9a                	sw	t1,84(sp)
20011efe:	c89e                	sw	t2,80(sp)
20011f00:	c6a2                	sw	s0,76(sp)
20011f02:	c4aa                	sw	a0,72(sp)
20011f04:	c2ae                	sw	a1,68(sp)
20011f06:	c0b2                	sw	a2,64(sp)
20011f08:	de36                	sw	a3,60(sp)
20011f0a:	dc3a                	sw	a4,56(sp)
20011f0c:	da3e                	sw	a5,52(sp)
20011f0e:	d842                	sw	a6,48(sp)
20011f10:	d646                	sw	a7,44(sp)
20011f12:	d472                	sw	t3,40(sp)
20011f14:	d276                	sw	t4,36(sp)
20011f16:	d07a                	sw	t5,32(sp)
20011f18:	ce7e                	sw	t6,28(sp)
20011f1a:	1080                	addi	s0,sp,96
/home/letsgrillbananas/wsFreedomStudio/embedded-software/freedom-metal/src/drivers/riscv_cpu.c:215
    __METAL_IRQ_VECTOR_HANDLER(METAL_INTERRUPT_ID_LC0);
20011f1c:	3405                	jal	2001193c <__metal_myhart_id>
20011f1e:	872a                	mv	a4,a0
20011f20:	800007b7          	lui	a5,0x80000
20011f24:	070a                	slli	a4,a4,0x2
20011f26:	48c78793          	addi	a5,a5,1164 # 8000048c <__global_pointer$+0xfffff804>
20011f2a:	97ba                	add	a5,a5,a4
20011f2c:	439c                	lw	a5,0(a5)
20011f2e:	faf42623          	sw	a5,-84(s0)
20011f32:	fac42783          	lw	a5,-84(s0)
20011f36:	c78d                	beqz	a5,20011f60 <metal_lc0_interrupt_vector_handler+0x6a>
/home/letsgrillbananas/wsFreedomStudio/embedded-software/freedom-metal/src/drivers/riscv_cpu.c:215 (discriminator 1)
20011f38:	fac42503          	lw	a0,-84(s0)
20011f3c:	983ff0ef          	jal	ra,200118be <__metal_driver_cpu_interrupt_controller>
20011f40:	faa42423          	sw	a0,-88(s0)
20011f44:	fa842783          	lw	a5,-88(s0)
20011f48:	2187a783          	lw	a5,536(a5)
20011f4c:	faf42223          	sw	a5,-92(s0)
20011f50:	fa842783          	lw	a5,-88(s0)
20011f54:	2107a783          	lw	a5,528(a5)
20011f58:	fa442583          	lw	a1,-92(s0)
20011f5c:	4541                	li	a0,16
20011f5e:	9782                	jalr	a5
/home/letsgrillbananas/wsFreedomStudio/embedded-software/freedom-metal/src/drivers/riscv_cpu.c:216
}
20011f60:	0001                	nop
20011f62:	40f6                	lw	ra,92(sp)
20011f64:	42e6                	lw	t0,88(sp)
20011f66:	4356                	lw	t1,84(sp)
20011f68:	43c6                	lw	t2,80(sp)
20011f6a:	4436                	lw	s0,76(sp)
20011f6c:	4526                	lw	a0,72(sp)
20011f6e:	4596                	lw	a1,68(sp)
20011f70:	4606                	lw	a2,64(sp)
20011f72:	56f2                	lw	a3,60(sp)
20011f74:	5762                	lw	a4,56(sp)
20011f76:	57d2                	lw	a5,52(sp)
20011f78:	5842                	lw	a6,48(sp)
20011f7a:	58b2                	lw	a7,44(sp)
20011f7c:	5e22                	lw	t3,40(sp)
20011f7e:	5e92                	lw	t4,36(sp)
20011f80:	5f02                	lw	t5,32(sp)
20011f82:	4ff2                	lw	t6,28(sp)
20011f84:	6125                	addi	sp,sp,96
20011f86:	30200073          	mret

20011f8a <metal_lc1_interrupt_vector_handler>:
metal_lc1_interrupt_vector_handler():
/home/letsgrillbananas/wsFreedomStudio/embedded-software/freedom-metal/src/drivers/riscv_cpu.c:219

/* The metal_lc1_interrupt_vector_handler() function can be redefined. */
void __attribute__((weak, interrupt)) metal_lc1_interrupt_vector_handler(void) {
20011f8a:	711d                	addi	sp,sp,-96
20011f8c:	ce86                	sw	ra,92(sp)
20011f8e:	cc96                	sw	t0,88(sp)
20011f90:	ca9a                	sw	t1,84(sp)
20011f92:	c89e                	sw	t2,80(sp)
20011f94:	c6a2                	sw	s0,76(sp)
20011f96:	c4aa                	sw	a0,72(sp)
20011f98:	c2ae                	sw	a1,68(sp)
20011f9a:	c0b2                	sw	a2,64(sp)
20011f9c:	de36                	sw	a3,60(sp)
20011f9e:	dc3a                	sw	a4,56(sp)
20011fa0:	da3e                	sw	a5,52(sp)
20011fa2:	d842                	sw	a6,48(sp)
20011fa4:	d646                	sw	a7,44(sp)
20011fa6:	d472                	sw	t3,40(sp)
20011fa8:	d276                	sw	t4,36(sp)
20011faa:	d07a                	sw	t5,32(sp)
20011fac:	ce7e                	sw	t6,28(sp)
20011fae:	1080                	addi	s0,sp,96
/home/letsgrillbananas/wsFreedomStudio/embedded-software/freedom-metal/src/drivers/riscv_cpu.c:220
    __METAL_IRQ_VECTOR_HANDLER(METAL_INTERRUPT_ID_LC1);
20011fb0:	98dff0ef          	jal	ra,2001193c <__metal_myhart_id>
20011fb4:	872a                	mv	a4,a0
20011fb6:	800007b7          	lui	a5,0x80000
20011fba:	070a                	slli	a4,a4,0x2
20011fbc:	48c78793          	addi	a5,a5,1164 # 8000048c <__global_pointer$+0xfffff804>
20011fc0:	97ba                	add	a5,a5,a4
20011fc2:	439c                	lw	a5,0(a5)
20011fc4:	faf42623          	sw	a5,-84(s0)
20011fc8:	fac42783          	lw	a5,-84(s0)
20011fcc:	c78d                	beqz	a5,20011ff6 <metal_lc1_interrupt_vector_handler+0x6c>
/home/letsgrillbananas/wsFreedomStudio/embedded-software/freedom-metal/src/drivers/riscv_cpu.c:220 (discriminator 1)
20011fce:	fac42503          	lw	a0,-84(s0)
20011fd2:	8edff0ef          	jal	ra,200118be <__metal_driver_cpu_interrupt_controller>
20011fd6:	faa42423          	sw	a0,-88(s0)
20011fda:	fa842783          	lw	a5,-88(s0)
20011fde:	2307a783          	lw	a5,560(a5)
20011fe2:	faf42223          	sw	a5,-92(s0)
20011fe6:	fa842783          	lw	a5,-88(s0)
20011fea:	2287a783          	lw	a5,552(a5)
20011fee:	fa442583          	lw	a1,-92(s0)
20011ff2:	4545                	li	a0,17
20011ff4:	9782                	jalr	a5
/home/letsgrillbananas/wsFreedomStudio/embedded-software/freedom-metal/src/drivers/riscv_cpu.c:221
}
20011ff6:	0001                	nop
20011ff8:	40f6                	lw	ra,92(sp)
20011ffa:	42e6                	lw	t0,88(sp)
20011ffc:	4356                	lw	t1,84(sp)
20011ffe:	43c6                	lw	t2,80(sp)
20012000:	4436                	lw	s0,76(sp)
20012002:	4526                	lw	a0,72(sp)
20012004:	4596                	lw	a1,68(sp)
20012006:	4606                	lw	a2,64(sp)
20012008:	56f2                	lw	a3,60(sp)
2001200a:	5762                	lw	a4,56(sp)
2001200c:	57d2                	lw	a5,52(sp)
2001200e:	5842                	lw	a6,48(sp)
20012010:	58b2                	lw	a7,44(sp)
20012012:	5e22                	lw	t3,40(sp)
20012014:	5e92                	lw	t4,36(sp)
20012016:	5f02                	lw	t5,32(sp)
20012018:	4ff2                	lw	t6,28(sp)
2001201a:	6125                	addi	sp,sp,96
2001201c:	30200073          	mret

20012020 <metal_lc2_interrupt_vector_handler>:
metal_lc2_interrupt_vector_handler():
/home/letsgrillbananas/wsFreedomStudio/embedded-software/freedom-metal/src/drivers/riscv_cpu.c:224

/* The metal_lc2_interrupt_vector_handler() function can be redefined. */
void __attribute__((weak, interrupt)) metal_lc2_interrupt_vector_handler(void) {
20012020:	711d                	addi	sp,sp,-96
20012022:	ce86                	sw	ra,92(sp)
20012024:	cc96                	sw	t0,88(sp)
20012026:	ca9a                	sw	t1,84(sp)
20012028:	c89e                	sw	t2,80(sp)
2001202a:	c6a2                	sw	s0,76(sp)
2001202c:	c4aa                	sw	a0,72(sp)
2001202e:	c2ae                	sw	a1,68(sp)
20012030:	c0b2                	sw	a2,64(sp)
20012032:	de36                	sw	a3,60(sp)
20012034:	dc3a                	sw	a4,56(sp)
20012036:	da3e                	sw	a5,52(sp)
20012038:	d842                	sw	a6,48(sp)
2001203a:	d646                	sw	a7,44(sp)
2001203c:	d472                	sw	t3,40(sp)
2001203e:	d276                	sw	t4,36(sp)
20012040:	d07a                	sw	t5,32(sp)
20012042:	ce7e                	sw	t6,28(sp)
20012044:	1080                	addi	s0,sp,96
/home/letsgrillbananas/wsFreedomStudio/embedded-software/freedom-metal/src/drivers/riscv_cpu.c:225
    __METAL_IRQ_VECTOR_HANDLER(METAL_INTERRUPT_ID_LC2);
20012046:	8f7ff0ef          	jal	ra,2001193c <__metal_myhart_id>
2001204a:	872a                	mv	a4,a0
2001204c:	800007b7          	lui	a5,0x80000
20012050:	070a                	slli	a4,a4,0x2
20012052:	48c78793          	addi	a5,a5,1164 # 8000048c <__global_pointer$+0xfffff804>
20012056:	97ba                	add	a5,a5,a4
20012058:	439c                	lw	a5,0(a5)
2001205a:	faf42623          	sw	a5,-84(s0)
2001205e:	fac42783          	lw	a5,-84(s0)
20012062:	c78d                	beqz	a5,2001208c <metal_lc2_interrupt_vector_handler+0x6c>
/home/letsgrillbananas/wsFreedomStudio/embedded-software/freedom-metal/src/drivers/riscv_cpu.c:225 (discriminator 1)
20012064:	fac42503          	lw	a0,-84(s0)
20012068:	857ff0ef          	jal	ra,200118be <__metal_driver_cpu_interrupt_controller>
2001206c:	faa42423          	sw	a0,-88(s0)
20012070:	fa842783          	lw	a5,-88(s0)
20012074:	2487a783          	lw	a5,584(a5)
20012078:	faf42223          	sw	a5,-92(s0)
2001207c:	fa842783          	lw	a5,-88(s0)
20012080:	2407a783          	lw	a5,576(a5)
20012084:	fa442583          	lw	a1,-92(s0)
20012088:	4549                	li	a0,18
2001208a:	9782                	jalr	a5
/home/letsgrillbananas/wsFreedomStudio/embedded-software/freedom-metal/src/drivers/riscv_cpu.c:226
}
2001208c:	0001                	nop
2001208e:	40f6                	lw	ra,92(sp)
20012090:	42e6                	lw	t0,88(sp)
20012092:	4356                	lw	t1,84(sp)
20012094:	43c6                	lw	t2,80(sp)
20012096:	4436                	lw	s0,76(sp)
20012098:	4526                	lw	a0,72(sp)
2001209a:	4596                	lw	a1,68(sp)
2001209c:	4606                	lw	a2,64(sp)
2001209e:	56f2                	lw	a3,60(sp)
200120a0:	5762                	lw	a4,56(sp)
200120a2:	57d2                	lw	a5,52(sp)
200120a4:	5842                	lw	a6,48(sp)
200120a6:	58b2                	lw	a7,44(sp)
200120a8:	5e22                	lw	t3,40(sp)
200120aa:	5e92                	lw	t4,36(sp)
200120ac:	5f02                	lw	t5,32(sp)
200120ae:	4ff2                	lw	t6,28(sp)
200120b0:	6125                	addi	sp,sp,96
200120b2:	30200073          	mret

200120b6 <metal_lc3_interrupt_vector_handler>:
metal_lc3_interrupt_vector_handler():
/home/letsgrillbananas/wsFreedomStudio/embedded-software/freedom-metal/src/drivers/riscv_cpu.c:229

/* The metal_lc3_interrupt_vector_handler() function can be redefined. */
void __attribute__((weak, interrupt)) metal_lc3_interrupt_vector_handler(void) {
200120b6:	711d                	addi	sp,sp,-96
200120b8:	ce86                	sw	ra,92(sp)
200120ba:	cc96                	sw	t0,88(sp)
200120bc:	ca9a                	sw	t1,84(sp)
200120be:	c89e                	sw	t2,80(sp)
200120c0:	c6a2                	sw	s0,76(sp)
200120c2:	c4aa                	sw	a0,72(sp)
200120c4:	c2ae                	sw	a1,68(sp)
200120c6:	c0b2                	sw	a2,64(sp)
200120c8:	de36                	sw	a3,60(sp)
200120ca:	dc3a                	sw	a4,56(sp)
200120cc:	da3e                	sw	a5,52(sp)
200120ce:	d842                	sw	a6,48(sp)
200120d0:	d646                	sw	a7,44(sp)
200120d2:	d472                	sw	t3,40(sp)
200120d4:	d276                	sw	t4,36(sp)
200120d6:	d07a                	sw	t5,32(sp)
200120d8:	ce7e                	sw	t6,28(sp)
200120da:	1080                	addi	s0,sp,96
/home/letsgrillbananas/wsFreedomStudio/embedded-software/freedom-metal/src/drivers/riscv_cpu.c:230
    __METAL_IRQ_VECTOR_HANDLER(METAL_INTERRUPT_ID_LC3);
200120dc:	861ff0ef          	jal	ra,2001193c <__metal_myhart_id>
200120e0:	872a                	mv	a4,a0
200120e2:	800007b7          	lui	a5,0x80000
200120e6:	070a                	slli	a4,a4,0x2
200120e8:	48c78793          	addi	a5,a5,1164 # 8000048c <__global_pointer$+0xfffff804>
200120ec:	97ba                	add	a5,a5,a4
200120ee:	439c                	lw	a5,0(a5)
200120f0:	faf42623          	sw	a5,-84(s0)
200120f4:	fac42783          	lw	a5,-84(s0)
200120f8:	c78d                	beqz	a5,20012122 <metal_lc3_interrupt_vector_handler+0x6c>
/home/letsgrillbananas/wsFreedomStudio/embedded-software/freedom-metal/src/drivers/riscv_cpu.c:230 (discriminator 1)
200120fa:	fac42503          	lw	a0,-84(s0)
200120fe:	fc0ff0ef          	jal	ra,200118be <__metal_driver_cpu_interrupt_controller>
20012102:	faa42423          	sw	a0,-88(s0)
20012106:	fa842783          	lw	a5,-88(s0)
2001210a:	2607a783          	lw	a5,608(a5)
2001210e:	faf42223          	sw	a5,-92(s0)
20012112:	fa842783          	lw	a5,-88(s0)
20012116:	2587a783          	lw	a5,600(a5)
2001211a:	fa442583          	lw	a1,-92(s0)
2001211e:	454d                	li	a0,19
20012120:	9782                	jalr	a5
/home/letsgrillbananas/wsFreedomStudio/embedded-software/freedom-metal/src/drivers/riscv_cpu.c:231
}
20012122:	0001                	nop
20012124:	40f6                	lw	ra,92(sp)
20012126:	42e6                	lw	t0,88(sp)
20012128:	4356                	lw	t1,84(sp)
2001212a:	43c6                	lw	t2,80(sp)
2001212c:	4436                	lw	s0,76(sp)
2001212e:	4526                	lw	a0,72(sp)
20012130:	4596                	lw	a1,68(sp)
20012132:	4606                	lw	a2,64(sp)
20012134:	56f2                	lw	a3,60(sp)
20012136:	5762                	lw	a4,56(sp)
20012138:	57d2                	lw	a5,52(sp)
2001213a:	5842                	lw	a6,48(sp)
2001213c:	58b2                	lw	a7,44(sp)
2001213e:	5e22                	lw	t3,40(sp)
20012140:	5e92                	lw	t4,36(sp)
20012142:	5f02                	lw	t5,32(sp)
20012144:	4ff2                	lw	t6,28(sp)
20012146:	6125                	addi	sp,sp,96
20012148:	30200073          	mret

2001214c <metal_lc4_interrupt_vector_handler>:
metal_lc4_interrupt_vector_handler():
/home/letsgrillbananas/wsFreedomStudio/embedded-software/freedom-metal/src/drivers/riscv_cpu.c:234

/* The metal_lc4_interrupt_vector_handler() function can be redefined. */
void __attribute__((weak, interrupt)) metal_lc4_interrupt_vector_handler(void) {
2001214c:	711d                	addi	sp,sp,-96
2001214e:	ce86                	sw	ra,92(sp)
20012150:	cc96                	sw	t0,88(sp)
20012152:	ca9a                	sw	t1,84(sp)
20012154:	c89e                	sw	t2,80(sp)
20012156:	c6a2                	sw	s0,76(sp)
20012158:	c4aa                	sw	a0,72(sp)
2001215a:	c2ae                	sw	a1,68(sp)
2001215c:	c0b2                	sw	a2,64(sp)
2001215e:	de36                	sw	a3,60(sp)
20012160:	dc3a                	sw	a4,56(sp)
20012162:	da3e                	sw	a5,52(sp)
20012164:	d842                	sw	a6,48(sp)
20012166:	d646                	sw	a7,44(sp)
20012168:	d472                	sw	t3,40(sp)
2001216a:	d276                	sw	t4,36(sp)
2001216c:	d07a                	sw	t5,32(sp)
2001216e:	ce7e                	sw	t6,28(sp)
20012170:	1080                	addi	s0,sp,96
/home/letsgrillbananas/wsFreedomStudio/embedded-software/freedom-metal/src/drivers/riscv_cpu.c:235
    __METAL_IRQ_VECTOR_HANDLER(METAL_INTERRUPT_ID_LC4);
20012172:	fcaff0ef          	jal	ra,2001193c <__metal_myhart_id>
20012176:	872a                	mv	a4,a0
20012178:	800007b7          	lui	a5,0x80000
2001217c:	070a                	slli	a4,a4,0x2
2001217e:	48c78793          	addi	a5,a5,1164 # 8000048c <__global_pointer$+0xfffff804>
20012182:	97ba                	add	a5,a5,a4
20012184:	439c                	lw	a5,0(a5)
20012186:	faf42623          	sw	a5,-84(s0)
2001218a:	fac42783          	lw	a5,-84(s0)
2001218e:	c78d                	beqz	a5,200121b8 <metal_lc4_interrupt_vector_handler+0x6c>
/home/letsgrillbananas/wsFreedomStudio/embedded-software/freedom-metal/src/drivers/riscv_cpu.c:235 (discriminator 1)
20012190:	fac42503          	lw	a0,-84(s0)
20012194:	f2aff0ef          	jal	ra,200118be <__metal_driver_cpu_interrupt_controller>
20012198:	faa42423          	sw	a0,-88(s0)
2001219c:	fa842783          	lw	a5,-88(s0)
200121a0:	2787a783          	lw	a5,632(a5)
200121a4:	faf42223          	sw	a5,-92(s0)
200121a8:	fa842783          	lw	a5,-88(s0)
200121ac:	2707a783          	lw	a5,624(a5)
200121b0:	fa442583          	lw	a1,-92(s0)
200121b4:	4551                	li	a0,20
200121b6:	9782                	jalr	a5
/home/letsgrillbananas/wsFreedomStudio/embedded-software/freedom-metal/src/drivers/riscv_cpu.c:236
}
200121b8:	0001                	nop
200121ba:	40f6                	lw	ra,92(sp)
200121bc:	42e6                	lw	t0,88(sp)
200121be:	4356                	lw	t1,84(sp)
200121c0:	43c6                	lw	t2,80(sp)
200121c2:	4436                	lw	s0,76(sp)
200121c4:	4526                	lw	a0,72(sp)
200121c6:	4596                	lw	a1,68(sp)
200121c8:	4606                	lw	a2,64(sp)
200121ca:	56f2                	lw	a3,60(sp)
200121cc:	5762                	lw	a4,56(sp)
200121ce:	57d2                	lw	a5,52(sp)
200121d0:	5842                	lw	a6,48(sp)
200121d2:	58b2                	lw	a7,44(sp)
200121d4:	5e22                	lw	t3,40(sp)
200121d6:	5e92                	lw	t4,36(sp)
200121d8:	5f02                	lw	t5,32(sp)
200121da:	4ff2                	lw	t6,28(sp)
200121dc:	6125                	addi	sp,sp,96
200121de:	30200073          	mret

200121e2 <metal_lc5_interrupt_vector_handler>:
metal_lc5_interrupt_vector_handler():
/home/letsgrillbananas/wsFreedomStudio/embedded-software/freedom-metal/src/drivers/riscv_cpu.c:239

/* The metal_lc5_interrupt_vector_handler() function can be redefined. */
void __attribute__((weak, interrupt)) metal_lc5_interrupt_vector_handler(void) {
200121e2:	711d                	addi	sp,sp,-96
200121e4:	ce86                	sw	ra,92(sp)
200121e6:	cc96                	sw	t0,88(sp)
200121e8:	ca9a                	sw	t1,84(sp)
200121ea:	c89e                	sw	t2,80(sp)
200121ec:	c6a2                	sw	s0,76(sp)
200121ee:	c4aa                	sw	a0,72(sp)
200121f0:	c2ae                	sw	a1,68(sp)
200121f2:	c0b2                	sw	a2,64(sp)
200121f4:	de36                	sw	a3,60(sp)
200121f6:	dc3a                	sw	a4,56(sp)
200121f8:	da3e                	sw	a5,52(sp)
200121fa:	d842                	sw	a6,48(sp)
200121fc:	d646                	sw	a7,44(sp)
200121fe:	d472                	sw	t3,40(sp)
20012200:	d276                	sw	t4,36(sp)
20012202:	d07a                	sw	t5,32(sp)
20012204:	ce7e                	sw	t6,28(sp)
20012206:	1080                	addi	s0,sp,96
/home/letsgrillbananas/wsFreedomStudio/embedded-software/freedom-metal/src/drivers/riscv_cpu.c:240
    __METAL_IRQ_VECTOR_HANDLER(METAL_INTERRUPT_ID_LC5);
20012208:	f34ff0ef          	jal	ra,2001193c <__metal_myhart_id>
2001220c:	872a                	mv	a4,a0
2001220e:	800007b7          	lui	a5,0x80000
20012212:	070a                	slli	a4,a4,0x2
20012214:	48c78793          	addi	a5,a5,1164 # 8000048c <__global_pointer$+0xfffff804>
20012218:	97ba                	add	a5,a5,a4
2001221a:	439c                	lw	a5,0(a5)
2001221c:	faf42623          	sw	a5,-84(s0)
20012220:	fac42783          	lw	a5,-84(s0)
20012224:	c78d                	beqz	a5,2001224e <metal_lc5_interrupt_vector_handler+0x6c>
/home/letsgrillbananas/wsFreedomStudio/embedded-software/freedom-metal/src/drivers/riscv_cpu.c:240 (discriminator 1)
20012226:	fac42503          	lw	a0,-84(s0)
2001222a:	e94ff0ef          	jal	ra,200118be <__metal_driver_cpu_interrupt_controller>
2001222e:	faa42423          	sw	a0,-88(s0)
20012232:	fa842783          	lw	a5,-88(s0)
20012236:	2907a783          	lw	a5,656(a5)
2001223a:	faf42223          	sw	a5,-92(s0)
2001223e:	fa842783          	lw	a5,-88(s0)
20012242:	2887a783          	lw	a5,648(a5)
20012246:	fa442583          	lw	a1,-92(s0)
2001224a:	4555                	li	a0,21
2001224c:	9782                	jalr	a5
/home/letsgrillbananas/wsFreedomStudio/embedded-software/freedom-metal/src/drivers/riscv_cpu.c:241
}
2001224e:	0001                	nop
20012250:	40f6                	lw	ra,92(sp)
20012252:	42e6                	lw	t0,88(sp)
20012254:	4356                	lw	t1,84(sp)
20012256:	43c6                	lw	t2,80(sp)
20012258:	4436                	lw	s0,76(sp)
2001225a:	4526                	lw	a0,72(sp)
2001225c:	4596                	lw	a1,68(sp)
2001225e:	4606                	lw	a2,64(sp)
20012260:	56f2                	lw	a3,60(sp)
20012262:	5762                	lw	a4,56(sp)
20012264:	57d2                	lw	a5,52(sp)
20012266:	5842                	lw	a6,48(sp)
20012268:	58b2                	lw	a7,44(sp)
2001226a:	5e22                	lw	t3,40(sp)
2001226c:	5e92                	lw	t4,36(sp)
2001226e:	5f02                	lw	t5,32(sp)
20012270:	4ff2                	lw	t6,28(sp)
20012272:	6125                	addi	sp,sp,96
20012274:	30200073          	mret

20012278 <metal_lc6_interrupt_vector_handler>:
metal_lc6_interrupt_vector_handler():
/home/letsgrillbananas/wsFreedomStudio/embedded-software/freedom-metal/src/drivers/riscv_cpu.c:244

/* The metal_lc6_interrupt_vector_handler() function can be redefined. */
void __attribute__((weak, interrupt)) metal_lc6_interrupt_vector_handler(void) {
20012278:	711d                	addi	sp,sp,-96
2001227a:	ce86                	sw	ra,92(sp)
2001227c:	cc96                	sw	t0,88(sp)
2001227e:	ca9a                	sw	t1,84(sp)
20012280:	c89e                	sw	t2,80(sp)
20012282:	c6a2                	sw	s0,76(sp)
20012284:	c4aa                	sw	a0,72(sp)
20012286:	c2ae                	sw	a1,68(sp)
20012288:	c0b2                	sw	a2,64(sp)
2001228a:	de36                	sw	a3,60(sp)
2001228c:	dc3a                	sw	a4,56(sp)
2001228e:	da3e                	sw	a5,52(sp)
20012290:	d842                	sw	a6,48(sp)
20012292:	d646                	sw	a7,44(sp)
20012294:	d472                	sw	t3,40(sp)
20012296:	d276                	sw	t4,36(sp)
20012298:	d07a                	sw	t5,32(sp)
2001229a:	ce7e                	sw	t6,28(sp)
2001229c:	1080                	addi	s0,sp,96
/home/letsgrillbananas/wsFreedomStudio/embedded-software/freedom-metal/src/drivers/riscv_cpu.c:245
    __METAL_IRQ_VECTOR_HANDLER(METAL_INTERRUPT_ID_LC6);
2001229e:	e9eff0ef          	jal	ra,2001193c <__metal_myhart_id>
200122a2:	872a                	mv	a4,a0
200122a4:	800007b7          	lui	a5,0x80000
200122a8:	070a                	slli	a4,a4,0x2
200122aa:	48c78793          	addi	a5,a5,1164 # 8000048c <__global_pointer$+0xfffff804>
200122ae:	97ba                	add	a5,a5,a4
200122b0:	439c                	lw	a5,0(a5)
200122b2:	faf42623          	sw	a5,-84(s0)
200122b6:	fac42783          	lw	a5,-84(s0)
200122ba:	c78d                	beqz	a5,200122e4 <metal_lc6_interrupt_vector_handler+0x6c>
/home/letsgrillbananas/wsFreedomStudio/embedded-software/freedom-metal/src/drivers/riscv_cpu.c:245 (discriminator 1)
200122bc:	fac42503          	lw	a0,-84(s0)
200122c0:	dfeff0ef          	jal	ra,200118be <__metal_driver_cpu_interrupt_controller>
200122c4:	faa42423          	sw	a0,-88(s0)
200122c8:	fa842783          	lw	a5,-88(s0)
200122cc:	2a87a783          	lw	a5,680(a5)
200122d0:	faf42223          	sw	a5,-92(s0)
200122d4:	fa842783          	lw	a5,-88(s0)
200122d8:	2a07a783          	lw	a5,672(a5)
200122dc:	fa442583          	lw	a1,-92(s0)
200122e0:	4559                	li	a0,22
200122e2:	9782                	jalr	a5
/home/letsgrillbananas/wsFreedomStudio/embedded-software/freedom-metal/src/drivers/riscv_cpu.c:246
}
200122e4:	0001                	nop
200122e6:	40f6                	lw	ra,92(sp)
200122e8:	42e6                	lw	t0,88(sp)
200122ea:	4356                	lw	t1,84(sp)
200122ec:	43c6                	lw	t2,80(sp)
200122ee:	4436                	lw	s0,76(sp)
200122f0:	4526                	lw	a0,72(sp)
200122f2:	4596                	lw	a1,68(sp)
200122f4:	4606                	lw	a2,64(sp)
200122f6:	56f2                	lw	a3,60(sp)
200122f8:	5762                	lw	a4,56(sp)
200122fa:	57d2                	lw	a5,52(sp)
200122fc:	5842                	lw	a6,48(sp)
200122fe:	58b2                	lw	a7,44(sp)
20012300:	5e22                	lw	t3,40(sp)
20012302:	5e92                	lw	t4,36(sp)
20012304:	5f02                	lw	t5,32(sp)
20012306:	4ff2                	lw	t6,28(sp)
20012308:	6125                	addi	sp,sp,96
2001230a:	30200073          	mret

2001230e <metal_lc7_interrupt_vector_handler>:
metal_lc7_interrupt_vector_handler():
/home/letsgrillbananas/wsFreedomStudio/embedded-software/freedom-metal/src/drivers/riscv_cpu.c:249

/* The metal_lc7_interrupt_vector_handler() function can be redefined. */
void __attribute__((weak, interrupt)) metal_lc7_interrupt_vector_handler(void) {
2001230e:	711d                	addi	sp,sp,-96
20012310:	ce86                	sw	ra,92(sp)
20012312:	cc96                	sw	t0,88(sp)
20012314:	ca9a                	sw	t1,84(sp)
20012316:	c89e                	sw	t2,80(sp)
20012318:	c6a2                	sw	s0,76(sp)
2001231a:	c4aa                	sw	a0,72(sp)
2001231c:	c2ae                	sw	a1,68(sp)
2001231e:	c0b2                	sw	a2,64(sp)
20012320:	de36                	sw	a3,60(sp)
20012322:	dc3a                	sw	a4,56(sp)
20012324:	da3e                	sw	a5,52(sp)
20012326:	d842                	sw	a6,48(sp)
20012328:	d646                	sw	a7,44(sp)
2001232a:	d472                	sw	t3,40(sp)
2001232c:	d276                	sw	t4,36(sp)
2001232e:	d07a                	sw	t5,32(sp)
20012330:	ce7e                	sw	t6,28(sp)
20012332:	1080                	addi	s0,sp,96
/home/letsgrillbananas/wsFreedomStudio/embedded-software/freedom-metal/src/drivers/riscv_cpu.c:250
    __METAL_IRQ_VECTOR_HANDLER(METAL_INTERRUPT_ID_LC7);
20012334:	e08ff0ef          	jal	ra,2001193c <__metal_myhart_id>
20012338:	872a                	mv	a4,a0
2001233a:	800007b7          	lui	a5,0x80000
2001233e:	070a                	slli	a4,a4,0x2
20012340:	48c78793          	addi	a5,a5,1164 # 8000048c <__global_pointer$+0xfffff804>
20012344:	97ba                	add	a5,a5,a4
20012346:	439c                	lw	a5,0(a5)
20012348:	faf42623          	sw	a5,-84(s0)
2001234c:	fac42783          	lw	a5,-84(s0)
20012350:	c78d                	beqz	a5,2001237a <metal_lc7_interrupt_vector_handler+0x6c>
/home/letsgrillbananas/wsFreedomStudio/embedded-software/freedom-metal/src/drivers/riscv_cpu.c:250 (discriminator 1)
20012352:	fac42503          	lw	a0,-84(s0)
20012356:	d68ff0ef          	jal	ra,200118be <__metal_driver_cpu_interrupt_controller>
2001235a:	faa42423          	sw	a0,-88(s0)
2001235e:	fa842783          	lw	a5,-88(s0)
20012362:	2c07a783          	lw	a5,704(a5)
20012366:	faf42223          	sw	a5,-92(s0)
2001236a:	fa842783          	lw	a5,-88(s0)
2001236e:	2b87a783          	lw	a5,696(a5)
20012372:	fa442583          	lw	a1,-92(s0)
20012376:	455d                	li	a0,23
20012378:	9782                	jalr	a5
/home/letsgrillbananas/wsFreedomStudio/embedded-software/freedom-metal/src/drivers/riscv_cpu.c:251
}
2001237a:	0001                	nop
2001237c:	40f6                	lw	ra,92(sp)
2001237e:	42e6                	lw	t0,88(sp)
20012380:	4356                	lw	t1,84(sp)
20012382:	43c6                	lw	t2,80(sp)
20012384:	4436                	lw	s0,76(sp)
20012386:	4526                	lw	a0,72(sp)
20012388:	4596                	lw	a1,68(sp)
2001238a:	4606                	lw	a2,64(sp)
2001238c:	56f2                	lw	a3,60(sp)
2001238e:	5762                	lw	a4,56(sp)
20012390:	57d2                	lw	a5,52(sp)
20012392:	5842                	lw	a6,48(sp)
20012394:	58b2                	lw	a7,44(sp)
20012396:	5e22                	lw	t3,40(sp)
20012398:	5e92                	lw	t4,36(sp)
2001239a:	5f02                	lw	t5,32(sp)
2001239c:	4ff2                	lw	t6,28(sp)
2001239e:	6125                	addi	sp,sp,96
200123a0:	30200073          	mret

200123a4 <metal_lc8_interrupt_vector_handler>:
metal_lc8_interrupt_vector_handler():
/home/letsgrillbananas/wsFreedomStudio/embedded-software/freedom-metal/src/drivers/riscv_cpu.c:254

/* The metal_lc8_interrupt_vector_handler() function can be redefined. */
void __attribute__((weak, interrupt)) metal_lc8_interrupt_vector_handler(void) {
200123a4:	711d                	addi	sp,sp,-96
200123a6:	ce86                	sw	ra,92(sp)
200123a8:	cc96                	sw	t0,88(sp)
200123aa:	ca9a                	sw	t1,84(sp)
200123ac:	c89e                	sw	t2,80(sp)
200123ae:	c6a2                	sw	s0,76(sp)
200123b0:	c4aa                	sw	a0,72(sp)
200123b2:	c2ae                	sw	a1,68(sp)
200123b4:	c0b2                	sw	a2,64(sp)
200123b6:	de36                	sw	a3,60(sp)
200123b8:	dc3a                	sw	a4,56(sp)
200123ba:	da3e                	sw	a5,52(sp)
200123bc:	d842                	sw	a6,48(sp)
200123be:	d646                	sw	a7,44(sp)
200123c0:	d472                	sw	t3,40(sp)
200123c2:	d276                	sw	t4,36(sp)
200123c4:	d07a                	sw	t5,32(sp)
200123c6:	ce7e                	sw	t6,28(sp)
200123c8:	1080                	addi	s0,sp,96
/home/letsgrillbananas/wsFreedomStudio/embedded-software/freedom-metal/src/drivers/riscv_cpu.c:255
    __METAL_IRQ_VECTOR_HANDLER(METAL_INTERRUPT_ID_LC8);
200123ca:	d72ff0ef          	jal	ra,2001193c <__metal_myhart_id>
200123ce:	872a                	mv	a4,a0
200123d0:	800007b7          	lui	a5,0x80000
200123d4:	070a                	slli	a4,a4,0x2
200123d6:	48c78793          	addi	a5,a5,1164 # 8000048c <__global_pointer$+0xfffff804>
200123da:	97ba                	add	a5,a5,a4
200123dc:	439c                	lw	a5,0(a5)
200123de:	faf42623          	sw	a5,-84(s0)
200123e2:	fac42783          	lw	a5,-84(s0)
200123e6:	c78d                	beqz	a5,20012410 <metal_lc8_interrupt_vector_handler+0x6c>
/home/letsgrillbananas/wsFreedomStudio/embedded-software/freedom-metal/src/drivers/riscv_cpu.c:255 (discriminator 1)
200123e8:	fac42503          	lw	a0,-84(s0)
200123ec:	cd2ff0ef          	jal	ra,200118be <__metal_driver_cpu_interrupt_controller>
200123f0:	faa42423          	sw	a0,-88(s0)
200123f4:	fa842783          	lw	a5,-88(s0)
200123f8:	2d87a783          	lw	a5,728(a5)
200123fc:	faf42223          	sw	a5,-92(s0)
20012400:	fa842783          	lw	a5,-88(s0)
20012404:	2d07a783          	lw	a5,720(a5)
20012408:	fa442583          	lw	a1,-92(s0)
2001240c:	4561                	li	a0,24
2001240e:	9782                	jalr	a5
/home/letsgrillbananas/wsFreedomStudio/embedded-software/freedom-metal/src/drivers/riscv_cpu.c:256
}
20012410:	0001                	nop
20012412:	40f6                	lw	ra,92(sp)
20012414:	42e6                	lw	t0,88(sp)
20012416:	4356                	lw	t1,84(sp)
20012418:	43c6                	lw	t2,80(sp)
2001241a:	4436                	lw	s0,76(sp)
2001241c:	4526                	lw	a0,72(sp)
2001241e:	4596                	lw	a1,68(sp)
20012420:	4606                	lw	a2,64(sp)
20012422:	56f2                	lw	a3,60(sp)
20012424:	5762                	lw	a4,56(sp)
20012426:	57d2                	lw	a5,52(sp)
20012428:	5842                	lw	a6,48(sp)
2001242a:	58b2                	lw	a7,44(sp)
2001242c:	5e22                	lw	t3,40(sp)
2001242e:	5e92                	lw	t4,36(sp)
20012430:	5f02                	lw	t5,32(sp)
20012432:	4ff2                	lw	t6,28(sp)
20012434:	6125                	addi	sp,sp,96
20012436:	30200073          	mret

2001243a <metal_lc9_interrupt_vector_handler>:
metal_lc9_interrupt_vector_handler():
/home/letsgrillbananas/wsFreedomStudio/embedded-software/freedom-metal/src/drivers/riscv_cpu.c:259

/* The metal_lc9_interrupt_vector_handler() function can be redefined. */
void __attribute__((weak, interrupt)) metal_lc9_interrupt_vector_handler(void) {
2001243a:	711d                	addi	sp,sp,-96
2001243c:	ce86                	sw	ra,92(sp)
2001243e:	cc96                	sw	t0,88(sp)
20012440:	ca9a                	sw	t1,84(sp)
20012442:	c89e                	sw	t2,80(sp)
20012444:	c6a2                	sw	s0,76(sp)
20012446:	c4aa                	sw	a0,72(sp)
20012448:	c2ae                	sw	a1,68(sp)
2001244a:	c0b2                	sw	a2,64(sp)
2001244c:	de36                	sw	a3,60(sp)
2001244e:	dc3a                	sw	a4,56(sp)
20012450:	da3e                	sw	a5,52(sp)
20012452:	d842                	sw	a6,48(sp)
20012454:	d646                	sw	a7,44(sp)
20012456:	d472                	sw	t3,40(sp)
20012458:	d276                	sw	t4,36(sp)
2001245a:	d07a                	sw	t5,32(sp)
2001245c:	ce7e                	sw	t6,28(sp)
2001245e:	1080                	addi	s0,sp,96
/home/letsgrillbananas/wsFreedomStudio/embedded-software/freedom-metal/src/drivers/riscv_cpu.c:260
    __METAL_IRQ_VECTOR_HANDLER(METAL_INTERRUPT_ID_LC9);
20012460:	cdcff0ef          	jal	ra,2001193c <__metal_myhart_id>
20012464:	872a                	mv	a4,a0
20012466:	800007b7          	lui	a5,0x80000
2001246a:	070a                	slli	a4,a4,0x2
2001246c:	48c78793          	addi	a5,a5,1164 # 8000048c <__global_pointer$+0xfffff804>
20012470:	97ba                	add	a5,a5,a4
20012472:	439c                	lw	a5,0(a5)
20012474:	faf42623          	sw	a5,-84(s0)
20012478:	fac42783          	lw	a5,-84(s0)
2001247c:	c78d                	beqz	a5,200124a6 <metal_lc9_interrupt_vector_handler+0x6c>
/home/letsgrillbananas/wsFreedomStudio/embedded-software/freedom-metal/src/drivers/riscv_cpu.c:260 (discriminator 1)
2001247e:	fac42503          	lw	a0,-84(s0)
20012482:	c3cff0ef          	jal	ra,200118be <__metal_driver_cpu_interrupt_controller>
20012486:	faa42423          	sw	a0,-88(s0)
2001248a:	fa842783          	lw	a5,-88(s0)
2001248e:	2f07a783          	lw	a5,752(a5)
20012492:	faf42223          	sw	a5,-92(s0)
20012496:	fa842783          	lw	a5,-88(s0)
2001249a:	2e87a783          	lw	a5,744(a5)
2001249e:	fa442583          	lw	a1,-92(s0)
200124a2:	4565                	li	a0,25
200124a4:	9782                	jalr	a5
/home/letsgrillbananas/wsFreedomStudio/embedded-software/freedom-metal/src/drivers/riscv_cpu.c:261
}
200124a6:	0001                	nop
200124a8:	40f6                	lw	ra,92(sp)
200124aa:	42e6                	lw	t0,88(sp)
200124ac:	4356                	lw	t1,84(sp)
200124ae:	43c6                	lw	t2,80(sp)
200124b0:	4436                	lw	s0,76(sp)
200124b2:	4526                	lw	a0,72(sp)
200124b4:	4596                	lw	a1,68(sp)
200124b6:	4606                	lw	a2,64(sp)
200124b8:	56f2                	lw	a3,60(sp)
200124ba:	5762                	lw	a4,56(sp)
200124bc:	57d2                	lw	a5,52(sp)
200124be:	5842                	lw	a6,48(sp)
200124c0:	58b2                	lw	a7,44(sp)
200124c2:	5e22                	lw	t3,40(sp)
200124c4:	5e92                	lw	t4,36(sp)
200124c6:	5f02                	lw	t5,32(sp)
200124c8:	4ff2                	lw	t6,28(sp)
200124ca:	6125                	addi	sp,sp,96
200124cc:	30200073          	mret

200124d0 <metal_lc10_interrupt_vector_handler>:
metal_lc10_interrupt_vector_handler():
/home/letsgrillbananas/wsFreedomStudio/embedded-software/freedom-metal/src/drivers/riscv_cpu.c:265

/* The metal_lc10_interrupt_vector_handler() function can be redefined. */
void __attribute__((weak, interrupt))
metal_lc10_interrupt_vector_handler(void) {
200124d0:	711d                	addi	sp,sp,-96
200124d2:	ce86                	sw	ra,92(sp)
200124d4:	cc96                	sw	t0,88(sp)
200124d6:	ca9a                	sw	t1,84(sp)
200124d8:	c89e                	sw	t2,80(sp)
200124da:	c6a2                	sw	s0,76(sp)
200124dc:	c4aa                	sw	a0,72(sp)
200124de:	c2ae                	sw	a1,68(sp)
200124e0:	c0b2                	sw	a2,64(sp)
200124e2:	de36                	sw	a3,60(sp)
200124e4:	dc3a                	sw	a4,56(sp)
200124e6:	da3e                	sw	a5,52(sp)
200124e8:	d842                	sw	a6,48(sp)
200124ea:	d646                	sw	a7,44(sp)
200124ec:	d472                	sw	t3,40(sp)
200124ee:	d276                	sw	t4,36(sp)
200124f0:	d07a                	sw	t5,32(sp)
200124f2:	ce7e                	sw	t6,28(sp)
200124f4:	1080                	addi	s0,sp,96
/home/letsgrillbananas/wsFreedomStudio/embedded-software/freedom-metal/src/drivers/riscv_cpu.c:266
    __METAL_IRQ_VECTOR_HANDLER(METAL_INTERRUPT_ID_LC10);
200124f6:	c46ff0ef          	jal	ra,2001193c <__metal_myhart_id>
200124fa:	872a                	mv	a4,a0
200124fc:	800007b7          	lui	a5,0x80000
20012500:	070a                	slli	a4,a4,0x2
20012502:	48c78793          	addi	a5,a5,1164 # 8000048c <__global_pointer$+0xfffff804>
20012506:	97ba                	add	a5,a5,a4
20012508:	439c                	lw	a5,0(a5)
2001250a:	faf42623          	sw	a5,-84(s0)
2001250e:	fac42783          	lw	a5,-84(s0)
20012512:	c78d                	beqz	a5,2001253c <metal_lc10_interrupt_vector_handler+0x6c>
/home/letsgrillbananas/wsFreedomStudio/embedded-software/freedom-metal/src/drivers/riscv_cpu.c:266 (discriminator 1)
20012514:	fac42503          	lw	a0,-84(s0)
20012518:	ba6ff0ef          	jal	ra,200118be <__metal_driver_cpu_interrupt_controller>
2001251c:	faa42423          	sw	a0,-88(s0)
20012520:	fa842783          	lw	a5,-88(s0)
20012524:	3087a783          	lw	a5,776(a5)
20012528:	faf42223          	sw	a5,-92(s0)
2001252c:	fa842783          	lw	a5,-88(s0)
20012530:	3007a783          	lw	a5,768(a5)
20012534:	fa442583          	lw	a1,-92(s0)
20012538:	4569                	li	a0,26
2001253a:	9782                	jalr	a5
/home/letsgrillbananas/wsFreedomStudio/embedded-software/freedom-metal/src/drivers/riscv_cpu.c:267
}
2001253c:	0001                	nop
2001253e:	40f6                	lw	ra,92(sp)
20012540:	42e6                	lw	t0,88(sp)
20012542:	4356                	lw	t1,84(sp)
20012544:	43c6                	lw	t2,80(sp)
20012546:	4436                	lw	s0,76(sp)
20012548:	4526                	lw	a0,72(sp)
2001254a:	4596                	lw	a1,68(sp)
2001254c:	4606                	lw	a2,64(sp)
2001254e:	56f2                	lw	a3,60(sp)
20012550:	5762                	lw	a4,56(sp)
20012552:	57d2                	lw	a5,52(sp)
20012554:	5842                	lw	a6,48(sp)
20012556:	58b2                	lw	a7,44(sp)
20012558:	5e22                	lw	t3,40(sp)
2001255a:	5e92                	lw	t4,36(sp)
2001255c:	5f02                	lw	t5,32(sp)
2001255e:	4ff2                	lw	t6,28(sp)
20012560:	6125                	addi	sp,sp,96
20012562:	30200073          	mret

20012566 <metal_lc11_interrupt_vector_handler>:
metal_lc11_interrupt_vector_handler():
/home/letsgrillbananas/wsFreedomStudio/embedded-software/freedom-metal/src/drivers/riscv_cpu.c:271

/* The metal_lc11_interrupt_vector_handler() function can be redefined. */
void __attribute__((weak, interrupt))
metal_lc11_interrupt_vector_handler(void) {
20012566:	711d                	addi	sp,sp,-96
20012568:	ce86                	sw	ra,92(sp)
2001256a:	cc96                	sw	t0,88(sp)
2001256c:	ca9a                	sw	t1,84(sp)
2001256e:	c89e                	sw	t2,80(sp)
20012570:	c6a2                	sw	s0,76(sp)
20012572:	c4aa                	sw	a0,72(sp)
20012574:	c2ae                	sw	a1,68(sp)
20012576:	c0b2                	sw	a2,64(sp)
20012578:	de36                	sw	a3,60(sp)
2001257a:	dc3a                	sw	a4,56(sp)
2001257c:	da3e                	sw	a5,52(sp)
2001257e:	d842                	sw	a6,48(sp)
20012580:	d646                	sw	a7,44(sp)
20012582:	d472                	sw	t3,40(sp)
20012584:	d276                	sw	t4,36(sp)
20012586:	d07a                	sw	t5,32(sp)
20012588:	ce7e                	sw	t6,28(sp)
2001258a:	1080                	addi	s0,sp,96
/home/letsgrillbananas/wsFreedomStudio/embedded-software/freedom-metal/src/drivers/riscv_cpu.c:272
    __METAL_IRQ_VECTOR_HANDLER(METAL_INTERRUPT_ID_LC11);
2001258c:	bb0ff0ef          	jal	ra,2001193c <__metal_myhart_id>
20012590:	872a                	mv	a4,a0
20012592:	800007b7          	lui	a5,0x80000
20012596:	070a                	slli	a4,a4,0x2
20012598:	48c78793          	addi	a5,a5,1164 # 8000048c <__global_pointer$+0xfffff804>
2001259c:	97ba                	add	a5,a5,a4
2001259e:	439c                	lw	a5,0(a5)
200125a0:	faf42623          	sw	a5,-84(s0)
200125a4:	fac42783          	lw	a5,-84(s0)
200125a8:	c78d                	beqz	a5,200125d2 <metal_lc11_interrupt_vector_handler+0x6c>
/home/letsgrillbananas/wsFreedomStudio/embedded-software/freedom-metal/src/drivers/riscv_cpu.c:272 (discriminator 1)
200125aa:	fac42503          	lw	a0,-84(s0)
200125ae:	b10ff0ef          	jal	ra,200118be <__metal_driver_cpu_interrupt_controller>
200125b2:	faa42423          	sw	a0,-88(s0)
200125b6:	fa842783          	lw	a5,-88(s0)
200125ba:	3207a783          	lw	a5,800(a5)
200125be:	faf42223          	sw	a5,-92(s0)
200125c2:	fa842783          	lw	a5,-88(s0)
200125c6:	3187a783          	lw	a5,792(a5)
200125ca:	fa442583          	lw	a1,-92(s0)
200125ce:	456d                	li	a0,27
200125d0:	9782                	jalr	a5
/home/letsgrillbananas/wsFreedomStudio/embedded-software/freedom-metal/src/drivers/riscv_cpu.c:273
}
200125d2:	0001                	nop
200125d4:	40f6                	lw	ra,92(sp)
200125d6:	42e6                	lw	t0,88(sp)
200125d8:	4356                	lw	t1,84(sp)
200125da:	43c6                	lw	t2,80(sp)
200125dc:	4436                	lw	s0,76(sp)
200125de:	4526                	lw	a0,72(sp)
200125e0:	4596                	lw	a1,68(sp)
200125e2:	4606                	lw	a2,64(sp)
200125e4:	56f2                	lw	a3,60(sp)
200125e6:	5762                	lw	a4,56(sp)
200125e8:	57d2                	lw	a5,52(sp)
200125ea:	5842                	lw	a6,48(sp)
200125ec:	58b2                	lw	a7,44(sp)
200125ee:	5e22                	lw	t3,40(sp)
200125f0:	5e92                	lw	t4,36(sp)
200125f2:	5f02                	lw	t5,32(sp)
200125f4:	4ff2                	lw	t6,28(sp)
200125f6:	6125                	addi	sp,sp,96
200125f8:	30200073          	mret

200125fc <metal_lc12_interrupt_vector_handler>:
metal_lc12_interrupt_vector_handler():
/home/letsgrillbananas/wsFreedomStudio/embedded-software/freedom-metal/src/drivers/riscv_cpu.c:277

/* The metal_lc12_interrupt_vector_handler() function can be redefined. */
void __attribute__((weak, interrupt))
metal_lc12_interrupt_vector_handler(void) {
200125fc:	711d                	addi	sp,sp,-96
200125fe:	ce86                	sw	ra,92(sp)
20012600:	cc96                	sw	t0,88(sp)
20012602:	ca9a                	sw	t1,84(sp)
20012604:	c89e                	sw	t2,80(sp)
20012606:	c6a2                	sw	s0,76(sp)
20012608:	c4aa                	sw	a0,72(sp)
2001260a:	c2ae                	sw	a1,68(sp)
2001260c:	c0b2                	sw	a2,64(sp)
2001260e:	de36                	sw	a3,60(sp)
20012610:	dc3a                	sw	a4,56(sp)
20012612:	da3e                	sw	a5,52(sp)
20012614:	d842                	sw	a6,48(sp)
20012616:	d646                	sw	a7,44(sp)
20012618:	d472                	sw	t3,40(sp)
2001261a:	d276                	sw	t4,36(sp)
2001261c:	d07a                	sw	t5,32(sp)
2001261e:	ce7e                	sw	t6,28(sp)
20012620:	1080                	addi	s0,sp,96
/home/letsgrillbananas/wsFreedomStudio/embedded-software/freedom-metal/src/drivers/riscv_cpu.c:278
    __METAL_IRQ_VECTOR_HANDLER(METAL_INTERRUPT_ID_LC12);
20012622:	b1aff0ef          	jal	ra,2001193c <__metal_myhart_id>
20012626:	872a                	mv	a4,a0
20012628:	800007b7          	lui	a5,0x80000
2001262c:	070a                	slli	a4,a4,0x2
2001262e:	48c78793          	addi	a5,a5,1164 # 8000048c <__global_pointer$+0xfffff804>
20012632:	97ba                	add	a5,a5,a4
20012634:	439c                	lw	a5,0(a5)
20012636:	faf42623          	sw	a5,-84(s0)
2001263a:	fac42783          	lw	a5,-84(s0)
2001263e:	c78d                	beqz	a5,20012668 <metal_lc12_interrupt_vector_handler+0x6c>
/home/letsgrillbananas/wsFreedomStudio/embedded-software/freedom-metal/src/drivers/riscv_cpu.c:278 (discriminator 1)
20012640:	fac42503          	lw	a0,-84(s0)
20012644:	a7aff0ef          	jal	ra,200118be <__metal_driver_cpu_interrupt_controller>
20012648:	faa42423          	sw	a0,-88(s0)
2001264c:	fa842783          	lw	a5,-88(s0)
20012650:	3387a783          	lw	a5,824(a5)
20012654:	faf42223          	sw	a5,-92(s0)
20012658:	fa842783          	lw	a5,-88(s0)
2001265c:	3307a783          	lw	a5,816(a5)
20012660:	fa442583          	lw	a1,-92(s0)
20012664:	4571                	li	a0,28
20012666:	9782                	jalr	a5
/home/letsgrillbananas/wsFreedomStudio/embedded-software/freedom-metal/src/drivers/riscv_cpu.c:279
}
20012668:	0001                	nop
2001266a:	40f6                	lw	ra,92(sp)
2001266c:	42e6                	lw	t0,88(sp)
2001266e:	4356                	lw	t1,84(sp)
20012670:	43c6                	lw	t2,80(sp)
20012672:	4436                	lw	s0,76(sp)
20012674:	4526                	lw	a0,72(sp)
20012676:	4596                	lw	a1,68(sp)
20012678:	4606                	lw	a2,64(sp)
2001267a:	56f2                	lw	a3,60(sp)
2001267c:	5762                	lw	a4,56(sp)
2001267e:	57d2                	lw	a5,52(sp)
20012680:	5842                	lw	a6,48(sp)
20012682:	58b2                	lw	a7,44(sp)
20012684:	5e22                	lw	t3,40(sp)
20012686:	5e92                	lw	t4,36(sp)
20012688:	5f02                	lw	t5,32(sp)
2001268a:	4ff2                	lw	t6,28(sp)
2001268c:	6125                	addi	sp,sp,96
2001268e:	30200073          	mret

20012692 <metal_lc13_interrupt_vector_handler>:
metal_lc13_interrupt_vector_handler():
/home/letsgrillbananas/wsFreedomStudio/embedded-software/freedom-metal/src/drivers/riscv_cpu.c:283

/* The metal_lc13_interrupt_vector_handler() function can be redefined. */
void __attribute__((weak, interrupt))
metal_lc13_interrupt_vector_handler(void) {
20012692:	711d                	addi	sp,sp,-96
20012694:	ce86                	sw	ra,92(sp)
20012696:	cc96                	sw	t0,88(sp)
20012698:	ca9a                	sw	t1,84(sp)
2001269a:	c89e                	sw	t2,80(sp)
2001269c:	c6a2                	sw	s0,76(sp)
2001269e:	c4aa                	sw	a0,72(sp)
200126a0:	c2ae                	sw	a1,68(sp)
200126a2:	c0b2                	sw	a2,64(sp)
200126a4:	de36                	sw	a3,60(sp)
200126a6:	dc3a                	sw	a4,56(sp)
200126a8:	da3e                	sw	a5,52(sp)
200126aa:	d842                	sw	a6,48(sp)
200126ac:	d646                	sw	a7,44(sp)
200126ae:	d472                	sw	t3,40(sp)
200126b0:	d276                	sw	t4,36(sp)
200126b2:	d07a                	sw	t5,32(sp)
200126b4:	ce7e                	sw	t6,28(sp)
200126b6:	1080                	addi	s0,sp,96
/home/letsgrillbananas/wsFreedomStudio/embedded-software/freedom-metal/src/drivers/riscv_cpu.c:284
    __METAL_IRQ_VECTOR_HANDLER(METAL_INTERRUPT_ID_LC13);
200126b8:	a84ff0ef          	jal	ra,2001193c <__metal_myhart_id>
200126bc:	872a                	mv	a4,a0
200126be:	800007b7          	lui	a5,0x80000
200126c2:	070a                	slli	a4,a4,0x2
200126c4:	48c78793          	addi	a5,a5,1164 # 8000048c <__global_pointer$+0xfffff804>
200126c8:	97ba                	add	a5,a5,a4
200126ca:	439c                	lw	a5,0(a5)
200126cc:	faf42623          	sw	a5,-84(s0)
200126d0:	fac42783          	lw	a5,-84(s0)
200126d4:	c78d                	beqz	a5,200126fe <metal_lc13_interrupt_vector_handler+0x6c>
/home/letsgrillbananas/wsFreedomStudio/embedded-software/freedom-metal/src/drivers/riscv_cpu.c:284 (discriminator 1)
200126d6:	fac42503          	lw	a0,-84(s0)
200126da:	9e4ff0ef          	jal	ra,200118be <__metal_driver_cpu_interrupt_controller>
200126de:	faa42423          	sw	a0,-88(s0)
200126e2:	fa842783          	lw	a5,-88(s0)
200126e6:	3507a783          	lw	a5,848(a5)
200126ea:	faf42223          	sw	a5,-92(s0)
200126ee:	fa842783          	lw	a5,-88(s0)
200126f2:	3487a783          	lw	a5,840(a5)
200126f6:	fa442583          	lw	a1,-92(s0)
200126fa:	4575                	li	a0,29
200126fc:	9782                	jalr	a5
/home/letsgrillbananas/wsFreedomStudio/embedded-software/freedom-metal/src/drivers/riscv_cpu.c:285
}
200126fe:	0001                	nop
20012700:	40f6                	lw	ra,92(sp)
20012702:	42e6                	lw	t0,88(sp)
20012704:	4356                	lw	t1,84(sp)
20012706:	43c6                	lw	t2,80(sp)
20012708:	4436                	lw	s0,76(sp)
2001270a:	4526                	lw	a0,72(sp)
2001270c:	4596                	lw	a1,68(sp)
2001270e:	4606                	lw	a2,64(sp)
20012710:	56f2                	lw	a3,60(sp)
20012712:	5762                	lw	a4,56(sp)
20012714:	57d2                	lw	a5,52(sp)
20012716:	5842                	lw	a6,48(sp)
20012718:	58b2                	lw	a7,44(sp)
2001271a:	5e22                	lw	t3,40(sp)
2001271c:	5e92                	lw	t4,36(sp)
2001271e:	5f02                	lw	t5,32(sp)
20012720:	4ff2                	lw	t6,28(sp)
20012722:	6125                	addi	sp,sp,96
20012724:	30200073          	mret

20012728 <metal_lc14_interrupt_vector_handler>:
metal_lc14_interrupt_vector_handler():
/home/letsgrillbananas/wsFreedomStudio/embedded-software/freedom-metal/src/drivers/riscv_cpu.c:289

/* The metal_lc14_interrupt_vector_handler() function can be redefined. */
void __attribute__((weak, interrupt))
metal_lc14_interrupt_vector_handler(void) {
20012728:	711d                	addi	sp,sp,-96
2001272a:	ce86                	sw	ra,92(sp)
2001272c:	cc96                	sw	t0,88(sp)
2001272e:	ca9a                	sw	t1,84(sp)
20012730:	c89e                	sw	t2,80(sp)
20012732:	c6a2                	sw	s0,76(sp)
20012734:	c4aa                	sw	a0,72(sp)
20012736:	c2ae                	sw	a1,68(sp)
20012738:	c0b2                	sw	a2,64(sp)
2001273a:	de36                	sw	a3,60(sp)
2001273c:	dc3a                	sw	a4,56(sp)
2001273e:	da3e                	sw	a5,52(sp)
20012740:	d842                	sw	a6,48(sp)
20012742:	d646                	sw	a7,44(sp)
20012744:	d472                	sw	t3,40(sp)
20012746:	d276                	sw	t4,36(sp)
20012748:	d07a                	sw	t5,32(sp)
2001274a:	ce7e                	sw	t6,28(sp)
2001274c:	1080                	addi	s0,sp,96
/home/letsgrillbananas/wsFreedomStudio/embedded-software/freedom-metal/src/drivers/riscv_cpu.c:290
    __METAL_IRQ_VECTOR_HANDLER(METAL_INTERRUPT_ID_LC14);
2001274e:	9eeff0ef          	jal	ra,2001193c <__metal_myhart_id>
20012752:	872a                	mv	a4,a0
20012754:	800007b7          	lui	a5,0x80000
20012758:	070a                	slli	a4,a4,0x2
2001275a:	48c78793          	addi	a5,a5,1164 # 8000048c <__global_pointer$+0xfffff804>
2001275e:	97ba                	add	a5,a5,a4
20012760:	439c                	lw	a5,0(a5)
20012762:	faf42623          	sw	a5,-84(s0)
20012766:	fac42783          	lw	a5,-84(s0)
2001276a:	c78d                	beqz	a5,20012794 <metal_lc14_interrupt_vector_handler+0x6c>
/home/letsgrillbananas/wsFreedomStudio/embedded-software/freedom-metal/src/drivers/riscv_cpu.c:290 (discriminator 1)
2001276c:	fac42503          	lw	a0,-84(s0)
20012770:	94eff0ef          	jal	ra,200118be <__metal_driver_cpu_interrupt_controller>
20012774:	faa42423          	sw	a0,-88(s0)
20012778:	fa842783          	lw	a5,-88(s0)
2001277c:	3687a783          	lw	a5,872(a5)
20012780:	faf42223          	sw	a5,-92(s0)
20012784:	fa842783          	lw	a5,-88(s0)
20012788:	3607a783          	lw	a5,864(a5)
2001278c:	fa442583          	lw	a1,-92(s0)
20012790:	4579                	li	a0,30
20012792:	9782                	jalr	a5
/home/letsgrillbananas/wsFreedomStudio/embedded-software/freedom-metal/src/drivers/riscv_cpu.c:291
}
20012794:	0001                	nop
20012796:	40f6                	lw	ra,92(sp)
20012798:	42e6                	lw	t0,88(sp)
2001279a:	4356                	lw	t1,84(sp)
2001279c:	43c6                	lw	t2,80(sp)
2001279e:	4436                	lw	s0,76(sp)
200127a0:	4526                	lw	a0,72(sp)
200127a2:	4596                	lw	a1,68(sp)
200127a4:	4606                	lw	a2,64(sp)
200127a6:	56f2                	lw	a3,60(sp)
200127a8:	5762                	lw	a4,56(sp)
200127aa:	57d2                	lw	a5,52(sp)
200127ac:	5842                	lw	a6,48(sp)
200127ae:	58b2                	lw	a7,44(sp)
200127b0:	5e22                	lw	t3,40(sp)
200127b2:	5e92                	lw	t4,36(sp)
200127b4:	5f02                	lw	t5,32(sp)
200127b6:	4ff2                	lw	t6,28(sp)
200127b8:	6125                	addi	sp,sp,96
200127ba:	30200073          	mret

200127be <metal_lc15_interrupt_vector_handler>:
metal_lc15_interrupt_vector_handler():
/home/letsgrillbananas/wsFreedomStudio/embedded-software/freedom-metal/src/drivers/riscv_cpu.c:295

/* The metal_lc15_interrupt_vector_handler() function can be redefined. */
void __attribute__((weak, interrupt))
metal_lc15_interrupt_vector_handler(void) {
200127be:	711d                	addi	sp,sp,-96
200127c0:	ce86                	sw	ra,92(sp)
200127c2:	cc96                	sw	t0,88(sp)
200127c4:	ca9a                	sw	t1,84(sp)
200127c6:	c89e                	sw	t2,80(sp)
200127c8:	c6a2                	sw	s0,76(sp)
200127ca:	c4aa                	sw	a0,72(sp)
200127cc:	c2ae                	sw	a1,68(sp)
200127ce:	c0b2                	sw	a2,64(sp)
200127d0:	de36                	sw	a3,60(sp)
200127d2:	dc3a                	sw	a4,56(sp)
200127d4:	da3e                	sw	a5,52(sp)
200127d6:	d842                	sw	a6,48(sp)
200127d8:	d646                	sw	a7,44(sp)
200127da:	d472                	sw	t3,40(sp)
200127dc:	d276                	sw	t4,36(sp)
200127de:	d07a                	sw	t5,32(sp)
200127e0:	ce7e                	sw	t6,28(sp)
200127e2:	1080                	addi	s0,sp,96
/home/letsgrillbananas/wsFreedomStudio/embedded-software/freedom-metal/src/drivers/riscv_cpu.c:296
    __METAL_IRQ_VECTOR_HANDLER(METAL_INTERRUPT_ID_LC15);
200127e4:	958ff0ef          	jal	ra,2001193c <__metal_myhart_id>
200127e8:	872a                	mv	a4,a0
200127ea:	800007b7          	lui	a5,0x80000
200127ee:	070a                	slli	a4,a4,0x2
200127f0:	48c78793          	addi	a5,a5,1164 # 8000048c <__global_pointer$+0xfffff804>
200127f4:	97ba                	add	a5,a5,a4
200127f6:	439c                	lw	a5,0(a5)
200127f8:	faf42623          	sw	a5,-84(s0)
200127fc:	fac42783          	lw	a5,-84(s0)
20012800:	c78d                	beqz	a5,2001282a <metal_lc15_interrupt_vector_handler+0x6c>
/home/letsgrillbananas/wsFreedomStudio/embedded-software/freedom-metal/src/drivers/riscv_cpu.c:296 (discriminator 1)
20012802:	fac42503          	lw	a0,-84(s0)
20012806:	8b8ff0ef          	jal	ra,200118be <__metal_driver_cpu_interrupt_controller>
2001280a:	faa42423          	sw	a0,-88(s0)
2001280e:	fa842783          	lw	a5,-88(s0)
20012812:	3807a783          	lw	a5,896(a5)
20012816:	faf42223          	sw	a5,-92(s0)
2001281a:	fa842783          	lw	a5,-88(s0)
2001281e:	3787a783          	lw	a5,888(a5)
20012822:	fa442583          	lw	a1,-92(s0)
20012826:	457d                	li	a0,31
20012828:	9782                	jalr	a5
/home/letsgrillbananas/wsFreedomStudio/embedded-software/freedom-metal/src/drivers/riscv_cpu.c:297
}
2001282a:	0001                	nop
2001282c:	40f6                	lw	ra,92(sp)
2001282e:	42e6                	lw	t0,88(sp)
20012830:	4356                	lw	t1,84(sp)
20012832:	43c6                	lw	t2,80(sp)
20012834:	4436                	lw	s0,76(sp)
20012836:	4526                	lw	a0,72(sp)
20012838:	4596                	lw	a1,68(sp)
2001283a:	4606                	lw	a2,64(sp)
2001283c:	56f2                	lw	a3,60(sp)
2001283e:	5762                	lw	a4,56(sp)
20012840:	57d2                	lw	a5,52(sp)
20012842:	5842                	lw	a6,48(sp)
20012844:	58b2                	lw	a7,44(sp)
20012846:	5e22                	lw	t3,40(sp)
20012848:	5e92                	lw	t4,36(sp)
2001284a:	5f02                	lw	t5,32(sp)
2001284c:	4ff2                	lw	t6,28(sp)
2001284e:	6125                	addi	sp,sp,96
20012850:	30200073          	mret

20012854 <__metal_controller_interrupt_vector_mode>:
__metal_controller_interrupt_vector_mode():
/home/letsgrillbananas/wsFreedomStudio/embedded-software/freedom-metal/src/drivers/riscv_cpu.c:299

metal_vector_mode __metal_controller_interrupt_vector_mode(void) {
20012854:	1101                	addi	sp,sp,-32
20012856:	ce22                	sw	s0,28(sp)
20012858:	1000                	addi	s0,sp,32
/home/letsgrillbananas/wsFreedomStudio/embedded-software/freedom-metal/src/drivers/riscv_cpu.c:302
    uintptr_t val;

    __asm__ volatile("csrr %0, mtvec" : "=r"(val));
2001285a:	305027f3          	csrr	a5,mtvec
2001285e:	fef42623          	sw	a5,-20(s0)
/home/letsgrillbananas/wsFreedomStudio/embedded-software/freedom-metal/src/drivers/riscv_cpu.c:303
    val &= METAL_MTVEC_MASK;
20012862:	fec42783          	lw	a5,-20(s0)
20012866:	03f7f793          	andi	a5,a5,63
2001286a:	fef42623          	sw	a5,-20(s0)
/home/letsgrillbananas/wsFreedomStudio/embedded-software/freedom-metal/src/drivers/riscv_cpu.c:305

    switch (val) {
2001286e:	fec42703          	lw	a4,-20(s0)
20012872:	4789                	li	a5,2
20012874:	00f70d63          	beq	a4,a5,2001288e <__metal_controller_interrupt_vector_mode+0x3a>
20012878:	fec42703          	lw	a4,-20(s0)
2001287c:	478d                	li	a5,3
2001287e:	00f70a63          	beq	a4,a5,20012892 <__metal_controller_interrupt_vector_mode+0x3e>
20012882:	fec42703          	lw	a4,-20(s0)
20012886:	4785                	li	a5,1
20012888:	00f70763          	beq	a4,a5,20012896 <__metal_controller_interrupt_vector_mode+0x42>
2001288c:	a039                	j	2001289a <__metal_controller_interrupt_vector_mode+0x46>
/home/letsgrillbananas/wsFreedomStudio/embedded-software/freedom-metal/src/drivers/riscv_cpu.c:307
    case METAL_MTVEC_CLIC:
        return METAL_SELECTIVE_VECTOR_MODE;
2001288e:	478d                	li	a5,3
20012890:	a031                	j	2001289c <__metal_controller_interrupt_vector_mode+0x48>
/home/letsgrillbananas/wsFreedomStudio/embedded-software/freedom-metal/src/drivers/riscv_cpu.c:309
    case METAL_MTVEC_CLIC_VECTORED:
        return METAL_HARDWARE_VECTOR_MODE;
20012892:	4791                	li	a5,4
20012894:	a021                	j	2001289c <__metal_controller_interrupt_vector_mode+0x48>
/home/letsgrillbananas/wsFreedomStudio/embedded-software/freedom-metal/src/drivers/riscv_cpu.c:311
    case METAL_MTVEC_VECTORED:
        return METAL_VECTOR_MODE;
20012896:	4785                	li	a5,1
20012898:	a011                	j	2001289c <__metal_controller_interrupt_vector_mode+0x48>
/home/letsgrillbananas/wsFreedomStudio/embedded-software/freedom-metal/src/drivers/riscv_cpu.c:313
    }
    return METAL_DIRECT_MODE;
2001289a:	4781                	li	a5,0
/home/letsgrillbananas/wsFreedomStudio/embedded-software/freedom-metal/src/drivers/riscv_cpu.c:314
}
2001289c:	853e                	mv	a0,a5
2001289e:	4472                	lw	s0,28(sp)
200128a0:	6105                	addi	sp,sp,32
200128a2:	8082                	ret

200128a4 <__metal_controller_interrupt_vector>:
__metal_controller_interrupt_vector():
/home/letsgrillbananas/wsFreedomStudio/embedded-software/freedom-metal/src/drivers/riscv_cpu.c:317

void __metal_controller_interrupt_vector(metal_vector_mode mode,
                                         void *vec_table) {
200128a4:	7179                	addi	sp,sp,-48
200128a6:	d622                	sw	s0,44(sp)
200128a8:	1800                	addi	s0,sp,48
200128aa:	fca42e23          	sw	a0,-36(s0)
200128ae:	fcb42c23          	sw	a1,-40(s0)
/home/letsgrillbananas/wsFreedomStudio/embedded-software/freedom-metal/src/drivers/riscv_cpu.c:320
    uintptr_t trap_entry, val;

    __asm__ volatile("csrr %0, mtvec" : "=r"(val));
200128b2:	305027f3          	csrr	a5,mtvec
200128b6:	fef42623          	sw	a5,-20(s0)
/home/letsgrillbananas/wsFreedomStudio/embedded-software/freedom-metal/src/drivers/riscv_cpu.c:321
    val &= ~(METAL_MTVEC_CLIC_VECTORED | METAL_MTVEC_CLIC_RESERVED);
200128ba:	fec42783          	lw	a5,-20(s0)
200128be:	fc07f793          	andi	a5,a5,-64
200128c2:	fef42623          	sw	a5,-20(s0)
/home/letsgrillbananas/wsFreedomStudio/embedded-software/freedom-metal/src/drivers/riscv_cpu.c:322
    trap_entry = (uintptr_t)vec_table;
200128c6:	fd842783          	lw	a5,-40(s0)
200128ca:	fef42423          	sw	a5,-24(s0)
/home/letsgrillbananas/wsFreedomStudio/embedded-software/freedom-metal/src/drivers/riscv_cpu.c:324

    switch (mode) {
200128ce:	fdc42703          	lw	a4,-36(s0)
200128d2:	4791                	li	a5,4
200128d4:	06e7e063          	bltu	a5,a4,20012934 <__metal_controller_interrupt_vector+0x90>
200128d8:	fdc42783          	lw	a5,-36(s0)
200128dc:	00279713          	slli	a4,a5,0x2
200128e0:	200107b7          	lui	a5,0x20010
200128e4:	3c078793          	addi	a5,a5,960 # 200103c0 <__metal_driver_vtable_riscv_clint0+0x64>
200128e8:	97ba                	add	a5,a5,a4
200128ea:	439c                	lw	a5,0(a5)
200128ec:	8782                	jr	a5
/home/letsgrillbananas/wsFreedomStudio/embedded-software/freedom-metal/src/drivers/riscv_cpu.c:327
    case METAL_SELECTIVE_NONVECTOR_MODE:
    case METAL_SELECTIVE_VECTOR_MODE:
        __asm__ volatile("csrw 0x307, %0" ::"r"(trap_entry));
200128ee:	fe842783          	lw	a5,-24(s0)
200128f2:	30779073          	csrw	mtvt,a5
/home/letsgrillbananas/wsFreedomStudio/embedded-software/freedom-metal/src/drivers/riscv_cpu.c:328
        __asm__ volatile("csrw mtvec, %0" ::"r"(val | METAL_MTVEC_CLIC));
200128f6:	fec42783          	lw	a5,-20(s0)
200128fa:	0027e793          	ori	a5,a5,2
200128fe:	30579073          	csrw	mtvec,a5
/home/letsgrillbananas/wsFreedomStudio/embedded-software/freedom-metal/src/drivers/riscv_cpu.c:329
        break;
20012902:	a80d                	j	20012934 <__metal_controller_interrupt_vector+0x90>
/home/letsgrillbananas/wsFreedomStudio/embedded-software/freedom-metal/src/drivers/riscv_cpu.c:331
    case METAL_HARDWARE_VECTOR_MODE:
        __asm__ volatile("csrw 0x307, %0" ::"r"(trap_entry));
20012904:	fe842783          	lw	a5,-24(s0)
20012908:	30779073          	csrw	mtvt,a5
/home/letsgrillbananas/wsFreedomStudio/embedded-software/freedom-metal/src/drivers/riscv_cpu.c:333
        __asm__ volatile(
            "csrw mtvec, %0" ::"r"(val | METAL_MTVEC_CLIC_VECTORED));
2001290c:	fec42783          	lw	a5,-20(s0)
20012910:	0037e793          	ori	a5,a5,3
/home/letsgrillbananas/wsFreedomStudio/embedded-software/freedom-metal/src/drivers/riscv_cpu.c:332
        __asm__ volatile(
20012914:	30579073          	csrw	mtvec,a5
/home/letsgrillbananas/wsFreedomStudio/embedded-software/freedom-metal/src/drivers/riscv_cpu.c:334
        break;
20012918:	a831                	j	20012934 <__metal_controller_interrupt_vector+0x90>
/home/letsgrillbananas/wsFreedomStudio/embedded-software/freedom-metal/src/drivers/riscv_cpu.c:337
    case METAL_VECTOR_MODE:
        __asm__ volatile(
            "csrw mtvec, %0" ::"r"(trap_entry | METAL_MTVEC_VECTORED));
2001291a:	fe842783          	lw	a5,-24(s0)
2001291e:	0017e793          	ori	a5,a5,1
/home/letsgrillbananas/wsFreedomStudio/embedded-software/freedom-metal/src/drivers/riscv_cpu.c:336
        __asm__ volatile(
20012922:	30579073          	csrw	mtvec,a5
/home/letsgrillbananas/wsFreedomStudio/embedded-software/freedom-metal/src/drivers/riscv_cpu.c:338
        break;
20012926:	a039                	j	20012934 <__metal_controller_interrupt_vector+0x90>
/home/letsgrillbananas/wsFreedomStudio/embedded-software/freedom-metal/src/drivers/riscv_cpu.c:341
    case METAL_DIRECT_MODE:
        __asm__ volatile(
            "csrw mtvec, %0" ::"r"(trap_entry & ~METAL_MTVEC_CLIC_VECTORED));
20012928:	fe842783          	lw	a5,-24(s0)
2001292c:	9bf1                	andi	a5,a5,-4
/home/letsgrillbananas/wsFreedomStudio/embedded-software/freedom-metal/src/drivers/riscv_cpu.c:340
        __asm__ volatile(
2001292e:	30579073          	csrw	mtvec,a5
/home/letsgrillbananas/wsFreedomStudio/embedded-software/freedom-metal/src/drivers/riscv_cpu.c:342
        break;
20012932:	0001                	nop
/home/letsgrillbananas/wsFreedomStudio/embedded-software/freedom-metal/src/drivers/riscv_cpu.c:344
    }
}
20012934:	0001                	nop
20012936:	5432                	lw	s0,44(sp)
20012938:	6145                	addi	sp,sp,48
2001293a:	8082                	ret

2001293c <__metal_valid_interrupt_id>:
__metal_valid_interrupt_id():
/home/letsgrillbananas/wsFreedomStudio/embedded-software/freedom-metal/src/drivers/riscv_cpu.c:346

int __metal_valid_interrupt_id(int id) {
2001293c:	1101                	addi	sp,sp,-32
2001293e:	ce22                	sw	s0,28(sp)
20012940:	1000                	addi	s0,sp,32
20012942:	fea42623          	sw	a0,-20(s0)
/home/letsgrillbananas/wsFreedomStudio/embedded-software/freedom-metal/src/drivers/riscv_cpu.c:347
    switch (id) {
20012946:	fec42703          	lw	a4,-20(s0)
2001294a:	47ad                	li	a5,11
2001294c:	04f70263          	beq	a4,a5,20012990 <__metal_valid_interrupt_id+0x54>
20012950:	fec42703          	lw	a4,-20(s0)
20012954:	47ad                	li	a5,11
20012956:	00e7cd63          	blt	a5,a4,20012970 <__metal_valid_interrupt_id+0x34>
2001295a:	fec42703          	lw	a4,-20(s0)
2001295e:	478d                	li	a5,3
20012960:	02f70863          	beq	a4,a5,20012990 <__metal_valid_interrupt_id+0x54>
20012964:	fec42703          	lw	a4,-20(s0)
20012968:	479d                	li	a5,7
2001296a:	02f70363          	beq	a4,a5,20012990 <__metal_valid_interrupt_id+0x54>
/home/letsgrillbananas/wsFreedomStudio/embedded-software/freedom-metal/src/drivers/riscv_cpu.c:370
    case METAL_INTERRUPT_ID_LC14:
    case METAL_INTERRUPT_ID_LC15:
    case METAL_INTERRUPT_ID_BEU:
        return 1;
    default:
        break;
2001296e:	a01d                	j	20012994 <__metal_valid_interrupt_id+0x58>
/home/letsgrillbananas/wsFreedomStudio/embedded-software/freedom-metal/src/drivers/riscv_cpu.c:347
    switch (id) {
20012970:	fec42703          	lw	a4,-20(s0)
20012974:	47c1                	li	a5,16
20012976:	00f74f63          	blt	a4,a5,20012994 <__metal_valid_interrupt_id+0x58>
2001297a:	fec42703          	lw	a4,-20(s0)
2001297e:	47fd                	li	a5,31
20012980:	00e7d863          	bge	a5,a4,20012990 <__metal_valid_interrupt_id+0x54>
20012984:	fec42703          	lw	a4,-20(s0)
20012988:	08000793          	li	a5,128
2001298c:	00f71463          	bne	a4,a5,20012994 <__metal_valid_interrupt_id+0x58>
/home/letsgrillbananas/wsFreedomStudio/embedded-software/freedom-metal/src/drivers/riscv_cpu.c:368
        return 1;
20012990:	4785                	li	a5,1
20012992:	a019                	j	20012998 <__metal_valid_interrupt_id+0x5c>
/home/letsgrillbananas/wsFreedomStudio/embedded-software/freedom-metal/src/drivers/riscv_cpu.c:370
        break;
20012994:	0001                	nop
/home/letsgrillbananas/wsFreedomStudio/embedded-software/freedom-metal/src/drivers/riscv_cpu.c:373
    }

    return 0;
20012996:	4781                	li	a5,0
/home/letsgrillbananas/wsFreedomStudio/embedded-software/freedom-metal/src/drivers/riscv_cpu.c:374
}
20012998:	853e                	mv	a0,a5
2001299a:	4472                	lw	s0,28(sp)
2001299c:	6105                	addi	sp,sp,32
2001299e:	8082                	ret

200129a0 <__metal_local_interrupt_enable>:
__metal_local_interrupt_enable():
/home/letsgrillbananas/wsFreedomStudio/embedded-software/freedom-metal/src/drivers/riscv_cpu.c:377

int __metal_local_interrupt_enable(struct metal_interrupt *controller,
                                   metal_interrupt_id_e id, int enable) {
200129a0:	7179                	addi	sp,sp,-48
200129a2:	d606                	sw	ra,44(sp)
200129a4:	d422                	sw	s0,40(sp)
200129a6:	1800                	addi	s0,sp,48
200129a8:	fca42e23          	sw	a0,-36(s0)
200129ac:	fcb42c23          	sw	a1,-40(s0)
200129b0:	fcc42a23          	sw	a2,-44(s0)
/home/letsgrillbananas/wsFreedomStudio/embedded-software/freedom-metal/src/drivers/riscv_cpu.c:378
    int rc = 0;
200129b4:	fe042623          	sw	zero,-20(s0)
/home/letsgrillbananas/wsFreedomStudio/embedded-software/freedom-metal/src/drivers/riscv_cpu.c:380

    if (!controller) {
200129b8:	fdc42783          	lw	a5,-36(s0)
200129bc:	e399                	bnez	a5,200129c2 <__metal_local_interrupt_enable+0x22>
/home/letsgrillbananas/wsFreedomStudio/embedded-software/freedom-metal/src/drivers/riscv_cpu.c:381
        return -1;
200129be:	57fd                	li	a5,-1
200129c0:	a849                	j	20012a52 <__metal_local_interrupt_enable+0xb2>
/home/letsgrillbananas/wsFreedomStudio/embedded-software/freedom-metal/src/drivers/riscv_cpu.c:384
    }

    switch (id) {
200129c2:	fd842703          	lw	a4,-40(s0)
200129c6:	47fd                	li	a5,31
200129c8:	08e7e063          	bltu	a5,a4,20012a48 <__metal_local_interrupt_enable+0xa8>
200129cc:	fd842783          	lw	a5,-40(s0)
200129d0:	00279713          	slli	a4,a5,0x2
200129d4:	200107b7          	lui	a5,0x20010
200129d8:	3d478793          	addi	a5,a5,980 # 200103d4 <__metal_driver_vtable_riscv_clint0+0x78>
200129dc:	97ba                	add	a5,a5,a4
200129de:	439c                	lw	a5,0(a5)
200129e0:	8782                	jr	a5
/home/letsgrillbananas/wsFreedomStudio/embedded-software/freedom-metal/src/drivers/riscv_cpu.c:386
    case METAL_INTERRUPT_ID_BASE:
        if (enable) {
200129e2:	fd442783          	lw	a5,-44(s0)
200129e6:	c781                	beqz	a5,200129ee <__metal_local_interrupt_enable+0x4e>
/home/letsgrillbananas/wsFreedomStudio/embedded-software/freedom-metal/src/drivers/riscv_cpu.c:387
            __metal_interrupt_global_enable();
200129e8:	f6ffe0ef          	jal	ra,20011956 <__metal_interrupt_global_enable>
/home/letsgrillbananas/wsFreedomStudio/embedded-software/freedom-metal/src/drivers/riscv_cpu.c:391
        } else {
            __metal_interrupt_global_disable();
        }
        break;
200129ec:	a08d                	j	20012a4e <__metal_local_interrupt_enable+0xae>
/home/letsgrillbananas/wsFreedomStudio/embedded-software/freedom-metal/src/drivers/riscv_cpu.c:389
            __metal_interrupt_global_disable();
200129ee:	f81fe0ef          	jal	ra,2001196e <__metal_interrupt_global_disable>
/home/letsgrillbananas/wsFreedomStudio/embedded-software/freedom-metal/src/drivers/riscv_cpu.c:391
        break;
200129f2:	a8b1                	j	20012a4e <__metal_local_interrupt_enable+0xae>
/home/letsgrillbananas/wsFreedomStudio/embedded-software/freedom-metal/src/drivers/riscv_cpu.c:393
    case METAL_INTERRUPT_ID_SW:
        if (enable) {
200129f4:	fd442783          	lw	a5,-44(s0)
200129f8:	c781                	beqz	a5,20012a00 <__metal_local_interrupt_enable+0x60>
/home/letsgrillbananas/wsFreedomStudio/embedded-software/freedom-metal/src/drivers/riscv_cpu.c:394
            __metal_interrupt_software_enable();
200129fa:	f8dfe0ef          	jal	ra,20011986 <__metal_interrupt_software_enable>
/home/letsgrillbananas/wsFreedomStudio/embedded-software/freedom-metal/src/drivers/riscv_cpu.c:398
        } else {
            __metal_interrupt_software_disable();
        }
        break;
200129fe:	a881                	j	20012a4e <__metal_local_interrupt_enable+0xae>
/home/letsgrillbananas/wsFreedomStudio/embedded-software/freedom-metal/src/drivers/riscv_cpu.c:396
            __metal_interrupt_software_disable();
20012a00:	f9ffe0ef          	jal	ra,2001199e <__metal_interrupt_software_disable>
/home/letsgrillbananas/wsFreedomStudio/embedded-software/freedom-metal/src/drivers/riscv_cpu.c:398
        break;
20012a04:	a0a9                	j	20012a4e <__metal_local_interrupt_enable+0xae>
/home/letsgrillbananas/wsFreedomStudio/embedded-software/freedom-metal/src/drivers/riscv_cpu.c:400
    case METAL_INTERRUPT_ID_TMR:
        if (enable) {
20012a06:	fd442783          	lw	a5,-44(s0)
20012a0a:	c781                	beqz	a5,20012a12 <__metal_local_interrupt_enable+0x72>
/home/letsgrillbananas/wsFreedomStudio/embedded-software/freedom-metal/src/drivers/riscv_cpu.c:401
            __metal_interrupt_timer_enable();
20012a0c:	fabfe0ef          	jal	ra,200119b6 <__metal_interrupt_timer_enable>
/home/letsgrillbananas/wsFreedomStudio/embedded-software/freedom-metal/src/drivers/riscv_cpu.c:405
        } else {
            __metal_interrupt_timer_disable();
        }
        break;
20012a10:	a83d                	j	20012a4e <__metal_local_interrupt_enable+0xae>
/home/letsgrillbananas/wsFreedomStudio/embedded-software/freedom-metal/src/drivers/riscv_cpu.c:403
            __metal_interrupt_timer_disable();
20012a12:	fbffe0ef          	jal	ra,200119d0 <__metal_interrupt_timer_disable>
/home/letsgrillbananas/wsFreedomStudio/embedded-software/freedom-metal/src/drivers/riscv_cpu.c:405
        break;
20012a16:	a825                	j	20012a4e <__metal_local_interrupt_enable+0xae>
/home/letsgrillbananas/wsFreedomStudio/embedded-software/freedom-metal/src/drivers/riscv_cpu.c:407
    case METAL_INTERRUPT_ID_EXT:
        if (enable) {
20012a18:	fd442783          	lw	a5,-44(s0)
20012a1c:	c781                	beqz	a5,20012a24 <__metal_local_interrupt_enable+0x84>
/home/letsgrillbananas/wsFreedomStudio/embedded-software/freedom-metal/src/drivers/riscv_cpu.c:408
            __metal_interrupt_external_enable();
20012a1e:	fcdfe0ef          	jal	ra,200119ea <__metal_interrupt_external_enable>
/home/letsgrillbananas/wsFreedomStudio/embedded-software/freedom-metal/src/drivers/riscv_cpu.c:412
        } else {
            __metal_interrupt_external_disable();
        }
        break;
20012a22:	a035                	j	20012a4e <__metal_local_interrupt_enable+0xae>
/home/letsgrillbananas/wsFreedomStudio/embedded-software/freedom-metal/src/drivers/riscv_cpu.c:410
            __metal_interrupt_external_disable();
20012a24:	fe3fe0ef          	jal	ra,20011a06 <__metal_interrupt_external_disable>
/home/letsgrillbananas/wsFreedomStudio/embedded-software/freedom-metal/src/drivers/riscv_cpu.c:412
        break;
20012a28:	a01d                	j	20012a4e <__metal_local_interrupt_enable+0xae>
/home/letsgrillbananas/wsFreedomStudio/embedded-software/freedom-metal/src/drivers/riscv_cpu.c:429
    case METAL_INTERRUPT_ID_LC11:
    case METAL_INTERRUPT_ID_LC12:
    case METAL_INTERRUPT_ID_LC13:
    case METAL_INTERRUPT_ID_LC14:
    case METAL_INTERRUPT_ID_LC15:
        if (enable) {
20012a2a:	fd442783          	lw	a5,-44(s0)
20012a2e:	c799                	beqz	a5,20012a3c <__metal_local_interrupt_enable+0x9c>
/home/letsgrillbananas/wsFreedomStudio/embedded-software/freedom-metal/src/drivers/riscv_cpu.c:430
            __metal_interrupt_local_enable(id);
20012a30:	fd842783          	lw	a5,-40(s0)
20012a34:	853e                	mv	a0,a5
20012a36:	fedfe0ef          	jal	ra,20011a22 <__metal_interrupt_local_enable>
/home/letsgrillbananas/wsFreedomStudio/embedded-software/freedom-metal/src/drivers/riscv_cpu.c:434
        } else {
            __metal_interrupt_local_disable(id);
        }
        break;
20012a3a:	a811                	j	20012a4e <__metal_local_interrupt_enable+0xae>
/home/letsgrillbananas/wsFreedomStudio/embedded-software/freedom-metal/src/drivers/riscv_cpu.c:432
            __metal_interrupt_local_disable(id);
20012a3c:	fd842783          	lw	a5,-40(s0)
20012a40:	853e                	mv	a0,a5
20012a42:	80cff0ef          	jal	ra,20011a4e <__metal_interrupt_local_disable>
/home/letsgrillbananas/wsFreedomStudio/embedded-software/freedom-metal/src/drivers/riscv_cpu.c:434
        break;
20012a46:	a021                	j	20012a4e <__metal_local_interrupt_enable+0xae>
/home/letsgrillbananas/wsFreedomStudio/embedded-software/freedom-metal/src/drivers/riscv_cpu.c:436
    default:
        rc = -1;
20012a48:	57fd                	li	a5,-1
20012a4a:	fef42623          	sw	a5,-20(s0)
/home/letsgrillbananas/wsFreedomStudio/embedded-software/freedom-metal/src/drivers/riscv_cpu.c:438
    }
    return rc;
20012a4e:	fec42783          	lw	a5,-20(s0)
/home/letsgrillbananas/wsFreedomStudio/embedded-software/freedom-metal/src/drivers/riscv_cpu.c:439
}
20012a52:	853e                	mv	a0,a5
20012a54:	50b2                	lw	ra,44(sp)
20012a56:	5422                	lw	s0,40(sp)
20012a58:	6145                	addi	sp,sp,48
20012a5a:	8082                	ret

20012a5c <__metal_exception_register>:
__metal_exception_register():
/home/letsgrillbananas/wsFreedomStudio/embedded-software/freedom-metal/src/drivers/riscv_cpu.c:442

int __metal_exception_register(struct metal_interrupt *controller, int ecode,
                               metal_exception_handler_t isr) {
20012a5c:	7179                	addi	sp,sp,-48
20012a5e:	d622                	sw	s0,44(sp)
20012a60:	1800                	addi	s0,sp,48
20012a62:	fca42e23          	sw	a0,-36(s0)
20012a66:	fcb42c23          	sw	a1,-40(s0)
20012a6a:	fcc42a23          	sw	a2,-44(s0)
/home/letsgrillbananas/wsFreedomStudio/embedded-software/freedom-metal/src/drivers/riscv_cpu.c:443
    struct __metal_driver_riscv_cpu_intc *intc = (void *)(controller);
20012a6e:	fdc42783          	lw	a5,-36(s0)
20012a72:	fef42623          	sw	a5,-20(s0)
/home/letsgrillbananas/wsFreedomStudio/embedded-software/freedom-metal/src/drivers/riscv_cpu.c:445

    if ((ecode < METAL_MAX_EXCEPTION_CODE) && isr) {
20012a76:	fd842703          	lw	a4,-40(s0)
20012a7a:	47ad                	li	a5,11
20012a7c:	02e7c263          	blt	a5,a4,20012aa0 <__metal_exception_register+0x44>
/home/letsgrillbananas/wsFreedomStudio/embedded-software/freedom-metal/src/drivers/riscv_cpu.c:445 (discriminator 1)
20012a80:	fd442783          	lw	a5,-44(s0)
20012a84:	cf91                	beqz	a5,20012aa0 <__metal_exception_register+0x44>
/home/letsgrillbananas/wsFreedomStudio/embedded-software/freedom-metal/src/drivers/riscv_cpu.c:446
        intc->metal_exception_table[ecode] = isr;
20012a86:	fec42703          	lw	a4,-20(s0)
20012a8a:	fd842783          	lw	a5,-40(s0)
20012a8e:	0e878793          	addi	a5,a5,232
20012a92:	078a                	slli	a5,a5,0x2
20012a94:	97ba                	add	a5,a5,a4
20012a96:	fd442703          	lw	a4,-44(s0)
20012a9a:	c398                	sw	a4,0(a5)
/home/letsgrillbananas/wsFreedomStudio/embedded-software/freedom-metal/src/drivers/riscv_cpu.c:447
        return 0;
20012a9c:	4781                	li	a5,0
20012a9e:	a011                	j	20012aa2 <__metal_exception_register+0x46>
/home/letsgrillbananas/wsFreedomStudio/embedded-software/freedom-metal/src/drivers/riscv_cpu.c:449
    }
    return -1;
20012aa0:	57fd                	li	a5,-1
/home/letsgrillbananas/wsFreedomStudio/embedded-software/freedom-metal/src/drivers/riscv_cpu.c:450
}
20012aa2:	853e                	mv	a0,a5
20012aa4:	5432                	lw	s0,44(sp)
20012aa6:	6145                	addi	sp,sp,48
20012aa8:	8082                	ret

20012aaa <__metal_driver_riscv_cpu_controller_interrupt_init>:
__metal_driver_riscv_cpu_controller_interrupt_init():
/home/letsgrillbananas/wsFreedomStudio/embedded-software/freedom-metal/src/drivers/riscv_cpu.c:454

extern void early_trap_vector(void);
void __metal_driver_riscv_cpu_controller_interrupt_init(
    struct metal_interrupt *controller) {
20012aaa:	7179                	addi	sp,sp,-48
20012aac:	d606                	sw	ra,44(sp)
20012aae:	d422                	sw	s0,40(sp)
20012ab0:	1800                	addi	s0,sp,48
20012ab2:	fca42e23          	sw	a0,-36(s0)
/home/letsgrillbananas/wsFreedomStudio/embedded-software/freedom-metal/src/drivers/riscv_cpu.c:455
    struct __metal_driver_riscv_cpu_intc *intc = (void *)(controller);
20012ab6:	fdc42783          	lw	a5,-36(s0)
20012aba:	fef42223          	sw	a5,-28(s0)
/home/letsgrillbananas/wsFreedomStudio/embedded-software/freedom-metal/src/drivers/riscv_cpu.c:457

    if (!intc->init_done) {
20012abe:	fe442783          	lw	a5,-28(s0)
20012ac2:	43dc                	lw	a5,4(a5)
20012ac4:	efdd                	bnez	a5,20012b82 <__metal_driver_riscv_cpu_controller_interrupt_init+0xd8>
/home/letsgrillbananas/wsFreedomStudio/embedded-software/freedom-metal/src/drivers/riscv_cpu.c:459
        /* Default to use direct interrupt, setup sw cb table*/
        for (int i = 0; i < METAL_MAX_MI; i++) {
20012ac6:	fe042623          	sw	zero,-20(s0)
20012aca:	a0b9                	j	20012b18 <__metal_driver_riscv_cpu_controller_interrupt_init+0x6e>
/home/letsgrillbananas/wsFreedomStudio/embedded-software/freedom-metal/src/drivers/riscv_cpu.c:460 (discriminator 3)
            intc->metal_int_table[i].handler = NULL;
20012acc:	fe442683          	lw	a3,-28(s0)
20012ad0:	fec42703          	lw	a4,-20(s0)
20012ad4:	87ba                	mv	a5,a4
20012ad6:	0786                	slli	a5,a5,0x1
20012ad8:	97ba                	add	a5,a5,a4
20012ada:	078e                	slli	a5,a5,0x3
20012adc:	97b6                	add	a5,a5,a3
20012ade:	0807a823          	sw	zero,144(a5)
/home/letsgrillbananas/wsFreedomStudio/embedded-software/freedom-metal/src/drivers/riscv_cpu.c:461 (discriminator 3)
            intc->metal_int_table[i].sub_int = NULL;
20012ae2:	fe442683          	lw	a3,-28(s0)
20012ae6:	fec42703          	lw	a4,-20(s0)
20012aea:	87ba                	mv	a5,a4
20012aec:	0786                	slli	a5,a5,0x1
20012aee:	97ba                	add	a5,a5,a4
20012af0:	078e                	slli	a5,a5,0x3
20012af2:	97b6                	add	a5,a5,a3
20012af4:	0807aa23          	sw	zero,148(a5)
/home/letsgrillbananas/wsFreedomStudio/embedded-software/freedom-metal/src/drivers/riscv_cpu.c:462 (discriminator 3)
            intc->metal_int_table[i].exint_data = NULL;
20012af8:	fe442683          	lw	a3,-28(s0)
20012afc:	fec42703          	lw	a4,-20(s0)
20012b00:	87ba                	mv	a5,a4
20012b02:	0786                	slli	a5,a5,0x1
20012b04:	97ba                	add	a5,a5,a4
20012b06:	078e                	slli	a5,a5,0x3
20012b08:	97b6                	add	a5,a5,a3
20012b0a:	0807ac23          	sw	zero,152(a5)
/home/letsgrillbananas/wsFreedomStudio/embedded-software/freedom-metal/src/drivers/riscv_cpu.c:459 (discriminator 3)
        for (int i = 0; i < METAL_MAX_MI; i++) {
20012b0e:	fec42783          	lw	a5,-20(s0)
20012b12:	0785                	addi	a5,a5,1
20012b14:	fef42623          	sw	a5,-20(s0)
/home/letsgrillbananas/wsFreedomStudio/embedded-software/freedom-metal/src/drivers/riscv_cpu.c:459 (discriminator 1)
20012b18:	fec42703          	lw	a4,-20(s0)
20012b1c:	47fd                	li	a5,31
20012b1e:	fae7d7e3          	bge	a5,a4,20012acc <__metal_driver_riscv_cpu_controller_interrupt_init+0x22>
/home/letsgrillbananas/wsFreedomStudio/embedded-software/freedom-metal/src/drivers/riscv_cpu.c:465
        }

        for (int i = 0; i < METAL_MAX_ME; i++) {
20012b22:	fe042423          	sw	zero,-24(s0)
20012b26:	a01d                	j	20012b4c <__metal_driver_riscv_cpu_controller_interrupt_init+0xa2>
/home/letsgrillbananas/wsFreedomStudio/embedded-software/freedom-metal/src/drivers/riscv_cpu.c:466 (discriminator 3)
            intc->metal_exception_table[i] = __metal_default_exception_handler;
20012b28:	fe442703          	lw	a4,-28(s0)
20012b2c:	fe842783          	lw	a5,-24(s0)
20012b30:	0e878793          	addi	a5,a5,232
20012b34:	078a                	slli	a5,a5,0x2
20012b36:	97ba                	add	a5,a5,a4
20012b38:	20012737          	lui	a4,0x20012
20012b3c:	a7a70713          	addi	a4,a4,-1414 # 20011a7a <__metal_default_exception_handler>
20012b40:	c398                	sw	a4,0(a5)
/home/letsgrillbananas/wsFreedomStudio/embedded-software/freedom-metal/src/drivers/riscv_cpu.c:465 (discriminator 3)
        for (int i = 0; i < METAL_MAX_ME; i++) {
20012b42:	fe842783          	lw	a5,-24(s0)
20012b46:	0785                	addi	a5,a5,1
20012b48:	fef42423          	sw	a5,-24(s0)
/home/letsgrillbananas/wsFreedomStudio/embedded-software/freedom-metal/src/drivers/riscv_cpu.c:465 (discriminator 1)
20012b4c:	fe842703          	lw	a4,-24(s0)
20012b50:	47ad                	li	a5,11
20012b52:	fce7dbe3          	bge	a5,a4,20012b28 <__metal_driver_riscv_cpu_controller_interrupt_init+0x7e>
/home/letsgrillbananas/wsFreedomStudio/embedded-software/freedom-metal/src/drivers/riscv_cpu.c:475
         * Set the real trap handler if the value of mtvec is equal to
         * early_trap_vector. If mtvec is not equal to early_trap_vector,
         * that means user has own trap handler, then we don't overwrite it.
         */
        uintptr_t mtvec;
        __asm__ volatile("csrr %0, mtvec" : "=r"(mtvec));
20012b56:	305027f3          	csrr	a5,mtvec
20012b5a:	fef42023          	sw	a5,-32(s0)
/home/letsgrillbananas/wsFreedomStudio/embedded-software/freedom-metal/src/drivers/riscv_cpu.c:476
        if (mtvec == (uintptr_t)&early_trap_vector) {
20012b5e:	200107b7          	lui	a5,0x20010
20012b62:	13c78793          	addi	a5,a5,316 # 2001013c <early_trap_vector>
20012b66:	fe042703          	lw	a4,-32(s0)
20012b6a:	00f71863          	bne	a4,a5,20012b7a <__metal_driver_riscv_cpu_controller_interrupt_init+0xd0>
/home/letsgrillbananas/wsFreedomStudio/embedded-software/freedom-metal/src/drivers/riscv_cpu.c:477
            __metal_controller_interrupt_vector(
20012b6e:	200127b7          	lui	a5,0x20012
20012b72:	d0078593          	addi	a1,a5,-768 # 20011d00 <__metal_exception_handler>
20012b76:	4501                	li	a0,0
20012b78:	3335                	jal	200128a4 <__metal_controller_interrupt_vector>
/home/letsgrillbananas/wsFreedomStudio/embedded-software/freedom-metal/src/drivers/riscv_cpu.c:481
                METAL_DIRECT_MODE,
                (void *)(uintptr_t)&__metal_exception_handler);
        }
        intc->init_done = 1;
20012b7a:	fe442783          	lw	a5,-28(s0)
20012b7e:	4705                	li	a4,1
20012b80:	c3d8                	sw	a4,4(a5)
/home/letsgrillbananas/wsFreedomStudio/embedded-software/freedom-metal/src/drivers/riscv_cpu.c:483
    }
}
20012b82:	0001                	nop
20012b84:	50b2                	lw	ra,44(sp)
20012b86:	5422                	lw	s0,40(sp)
20012b88:	6145                	addi	sp,sp,48
20012b8a:	8082                	ret

20012b8c <__metal_driver_riscv_cpu_controller_interrupt_register>:
__metal_driver_riscv_cpu_controller_interrupt_register():
/home/letsgrillbananas/wsFreedomStudio/embedded-software/freedom-metal/src/drivers/riscv_cpu.c:487

int __metal_driver_riscv_cpu_controller_interrupt_register(
    struct metal_interrupt *controller, int id, metal_interrupt_handler_t isr,
    void *priv) {
20012b8c:	7179                	addi	sp,sp,-48
20012b8e:	d606                	sw	ra,44(sp)
20012b90:	d422                	sw	s0,40(sp)
20012b92:	1800                	addi	s0,sp,48
20012b94:	fca42e23          	sw	a0,-36(s0)
20012b98:	fcb42c23          	sw	a1,-40(s0)
20012b9c:	fcc42a23          	sw	a2,-44(s0)
20012ba0:	fcd42823          	sw	a3,-48(s0)
/home/letsgrillbananas/wsFreedomStudio/embedded-software/freedom-metal/src/drivers/riscv_cpu.c:488
    int rc = 0;
20012ba4:	fe042623          	sw	zero,-20(s0)
/home/letsgrillbananas/wsFreedomStudio/embedded-software/freedom-metal/src/drivers/riscv_cpu.c:489
    struct __metal_driver_riscv_cpu_intc *intc = (void *)(controller);
20012ba8:	fdc42783          	lw	a5,-36(s0)
20012bac:	fef42423          	sw	a5,-24(s0)
/home/letsgrillbananas/wsFreedomStudio/embedded-software/freedom-metal/src/drivers/riscv_cpu.c:491

    if (!__metal_valid_interrupt_id(id)) {
20012bb0:	fd842503          	lw	a0,-40(s0)
20012bb4:	3361                	jal	2001293c <__metal_valid_interrupt_id>
20012bb6:	87aa                	mv	a5,a0
20012bb8:	e399                	bnez	a5,20012bbe <__metal_driver_riscv_cpu_controller_interrupt_register+0x32>
/home/letsgrillbananas/wsFreedomStudio/embedded-software/freedom-metal/src/drivers/riscv_cpu.c:492
        return -11;
20012bba:	57d5                	li	a5,-11
20012bbc:	aa71                	j	20012d58 <__metal_driver_riscv_cpu_controller_interrupt_register+0x1cc>
/home/letsgrillbananas/wsFreedomStudio/embedded-software/freedom-metal/src/drivers/riscv_cpu.c:494
    }
    if ((id == METAL_INTERRUPT_ID_BEU) &&
20012bbe:	fd842703          	lw	a4,-40(s0)
20012bc2:	08000793          	li	a5,128
20012bc6:	00f71763          	bne	a4,a5,20012bd4 <__metal_driver_riscv_cpu_controller_interrupt_register+0x48>
/home/letsgrillbananas/wsFreedomStudio/embedded-software/freedom-metal/src/drivers/riscv_cpu.c:495 (discriminator 1)
        (__metal_controller_interrupt_vector_mode() != METAL_DIRECT_MODE)) {
20012bca:	3169                	jal	20012854 <__metal_controller_interrupt_vector_mode>
20012bcc:	87aa                	mv	a5,a0
/home/letsgrillbananas/wsFreedomStudio/embedded-software/freedom-metal/src/drivers/riscv_cpu.c:494 (discriminator 1)
    if ((id == METAL_INTERRUPT_ID_BEU) &&
20012bce:	c399                	beqz	a5,20012bd4 <__metal_driver_riscv_cpu_controller_interrupt_register+0x48>
/home/letsgrillbananas/wsFreedomStudio/embedded-software/freedom-metal/src/drivers/riscv_cpu.c:498
        /* Only allow registration of the bus error unit interrupt if
         * interrupt vectoring if off */
        return -13;
20012bd0:	57cd                	li	a5,-13
20012bd2:	a259                	j	20012d58 <__metal_driver_riscv_cpu_controller_interrupt_register+0x1cc>
/home/letsgrillbananas/wsFreedomStudio/embedded-software/freedom-metal/src/drivers/riscv_cpu.c:501
    }

    if (isr) {
20012bd4:	fd442783          	lw	a5,-44(s0)
20012bd8:	cfb9                	beqz	a5,20012c36 <__metal_driver_riscv_cpu_controller_interrupt_register+0xaa>
/home/letsgrillbananas/wsFreedomStudio/embedded-software/freedom-metal/src/drivers/riscv_cpu.c:502
        if (id == METAL_INTERRUPT_ID_BEU) {
20012bda:	fd842703          	lw	a4,-40(s0)
20012bde:	08000793          	li	a5,128
20012be2:	00f71f63          	bne	a4,a5,20012c00 <__metal_driver_riscv_cpu_controller_interrupt_register+0x74>
/home/letsgrillbananas/wsFreedomStudio/embedded-software/freedom-metal/src/drivers/riscv_cpu.c:503
            intc->metal_int_beu.handler = isr;
20012be6:	fe842783          	lw	a5,-24(s0)
20012bea:	fd442703          	lw	a4,-44(s0)
20012bee:	38e7a823          	sw	a4,912(a5)
/home/letsgrillbananas/wsFreedomStudio/embedded-software/freedom-metal/src/drivers/riscv_cpu.c:504
            intc->metal_int_beu.exint_data = priv;
20012bf2:	fe842783          	lw	a5,-24(s0)
20012bf6:	fd042703          	lw	a4,-48(s0)
20012bfa:	38e7ac23          	sw	a4,920(a5)
20012bfe:	aa99                	j	20012d54 <__metal_driver_riscv_cpu_controller_interrupt_register+0x1c8>
/home/letsgrillbananas/wsFreedomStudio/embedded-software/freedom-metal/src/drivers/riscv_cpu.c:506
        } else {
            intc->metal_int_table[id].handler = isr;
20012c00:	fe842683          	lw	a3,-24(s0)
20012c04:	fd842703          	lw	a4,-40(s0)
20012c08:	87ba                	mv	a5,a4
20012c0a:	0786                	slli	a5,a5,0x1
20012c0c:	97ba                	add	a5,a5,a4
20012c0e:	078e                	slli	a5,a5,0x3
20012c10:	97b6                	add	a5,a5,a3
20012c12:	fd442703          	lw	a4,-44(s0)
20012c16:	08e7a823          	sw	a4,144(a5)
/home/letsgrillbananas/wsFreedomStudio/embedded-software/freedom-metal/src/drivers/riscv_cpu.c:507
            intc->metal_int_table[id].exint_data = priv;
20012c1a:	fe842683          	lw	a3,-24(s0)
20012c1e:	fd842703          	lw	a4,-40(s0)
20012c22:	87ba                	mv	a5,a4
20012c24:	0786                	slli	a5,a5,0x1
20012c26:	97ba                	add	a5,a5,a4
20012c28:	078e                	slli	a5,a5,0x3
20012c2a:	97b6                	add	a5,a5,a3
20012c2c:	fd042703          	lw	a4,-48(s0)
20012c30:	08e7ac23          	sw	a4,152(a5)
20012c34:	a205                	j	20012d54 <__metal_driver_riscv_cpu_controller_interrupt_register+0x1c8>
/home/letsgrillbananas/wsFreedomStudio/embedded-software/freedom-metal/src/drivers/riscv_cpu.c:510
        }
    } else {
        switch (id) {
20012c36:	fd842703          	lw	a4,-40(s0)
20012c3a:	47ad                	li	a5,11
20012c3c:	0cf70c63          	beq	a4,a5,20012d14 <__metal_driver_riscv_cpu_controller_interrupt_register+0x188>
20012c40:	fd842703          	lw	a4,-40(s0)
20012c44:	47ad                	li	a5,11
20012c46:	00e7cd63          	blt	a5,a4,20012c60 <__metal_driver_riscv_cpu_controller_interrupt_register+0xd4>
20012c4a:	fd842703          	lw	a4,-40(s0)
20012c4e:	478d                	li	a5,3
20012c50:	02f70963          	beq	a4,a5,20012c82 <__metal_driver_riscv_cpu_controller_interrupt_register+0xf6>
20012c54:	fd842703          	lw	a4,-40(s0)
20012c58:	479d                	li	a5,7
20012c5a:	06f70163          	beq	a4,a5,20012cbc <__metal_driver_riscv_cpu_controller_interrupt_register+0x130>
20012c5e:	a8c5                	j	20012d4e <__metal_driver_riscv_cpu_controller_interrupt_register+0x1c2>
20012c60:	fd842703          	lw	a4,-40(s0)
20012c64:	47c1                	li	a5,16
20012c66:	0ef74463          	blt	a4,a5,20012d4e <__metal_driver_riscv_cpu_controller_interrupt_register+0x1c2>
20012c6a:	fd842703          	lw	a4,-40(s0)
20012c6e:	47fd                	li	a5,31
20012c70:	0ae7d263          	bge	a5,a4,20012d14 <__metal_driver_riscv_cpu_controller_interrupt_register+0x188>
20012c74:	fd842703          	lw	a4,-40(s0)
20012c78:	08000793          	li	a5,128
20012c7c:	06f70d63          	beq	a4,a5,20012cf6 <__metal_driver_riscv_cpu_controller_interrupt_register+0x16a>
20012c80:	a0f9                	j	20012d4e <__metal_driver_riscv_cpu_controller_interrupt_register+0x1c2>
/home/letsgrillbananas/wsFreedomStudio/embedded-software/freedom-metal/src/drivers/riscv_cpu.c:512
        case METAL_INTERRUPT_ID_SW:
            intc->metal_int_table[id].handler = __metal_default_sw_handler;
20012c82:	fe842683          	lw	a3,-24(s0)
20012c86:	fd842703          	lw	a4,-40(s0)
20012c8a:	87ba                	mv	a5,a4
20012c8c:	0786                	slli	a5,a5,0x1
20012c8e:	97ba                	add	a5,a5,a4
20012c90:	078e                	slli	a5,a5,0x3
20012c92:	97b6                	add	a5,a5,a3
20012c94:	20012737          	lui	a4,0x20012
20012c98:	b6a70713          	addi	a4,a4,-1174 # 20011b6a <__metal_default_sw_handler>
20012c9c:	08e7a823          	sw	a4,144(a5)
/home/letsgrillbananas/wsFreedomStudio/embedded-software/freedom-metal/src/drivers/riscv_cpu.c:513
            intc->metal_int_table[id].sub_int = priv;
20012ca0:	fe842683          	lw	a3,-24(s0)
20012ca4:	fd842703          	lw	a4,-40(s0)
20012ca8:	87ba                	mv	a5,a4
20012caa:	0786                	slli	a5,a5,0x1
20012cac:	97ba                	add	a5,a5,a4
20012cae:	078e                	slli	a5,a5,0x3
20012cb0:	97b6                	add	a5,a5,a3
20012cb2:	fd042703          	lw	a4,-48(s0)
20012cb6:	08e7aa23          	sw	a4,148(a5)
/home/letsgrillbananas/wsFreedomStudio/embedded-software/freedom-metal/src/drivers/riscv_cpu.c:514
            break;
20012cba:	a869                	j	20012d54 <__metal_driver_riscv_cpu_controller_interrupt_register+0x1c8>
/home/letsgrillbananas/wsFreedomStudio/embedded-software/freedom-metal/src/drivers/riscv_cpu.c:516
        case METAL_INTERRUPT_ID_TMR:
            intc->metal_int_table[id].handler = __metal_default_timer_handler;
20012cbc:	fe842683          	lw	a3,-24(s0)
20012cc0:	fd842703          	lw	a4,-40(s0)
20012cc4:	87ba                	mv	a5,a4
20012cc6:	0786                	slli	a5,a5,0x1
20012cc8:	97ba                	add	a5,a5,a4
20012cca:	078e                	slli	a5,a5,0x3
20012ccc:	97b6                	add	a5,a5,a3
20012cce:	20012737          	lui	a4,0x20012
20012cd2:	c7a70713          	addi	a4,a4,-902 # 20011c7a <__metal_default_timer_handler>
20012cd6:	08e7a823          	sw	a4,144(a5)
/home/letsgrillbananas/wsFreedomStudio/embedded-software/freedom-metal/src/drivers/riscv_cpu.c:517
            intc->metal_int_table[id].sub_int = priv;
20012cda:	fe842683          	lw	a3,-24(s0)
20012cde:	fd842703          	lw	a4,-40(s0)
20012ce2:	87ba                	mv	a5,a4
20012ce4:	0786                	slli	a5,a5,0x1
20012ce6:	97ba                	add	a5,a5,a4
20012ce8:	078e                	slli	a5,a5,0x3
20012cea:	97b6                	add	a5,a5,a3
20012cec:	fd042703          	lw	a4,-48(s0)
20012cf0:	08e7aa23          	sw	a4,148(a5)
/home/letsgrillbananas/wsFreedomStudio/embedded-software/freedom-metal/src/drivers/riscv_cpu.c:518
            break;
20012cf4:	a085                	j	20012d54 <__metal_driver_riscv_cpu_controller_interrupt_register+0x1c8>
/home/letsgrillbananas/wsFreedomStudio/embedded-software/freedom-metal/src/drivers/riscv_cpu.c:520
        case METAL_INTERRUPT_ID_BEU:
            intc->metal_int_beu.handler = __metal_default_beu_handler;
20012cf6:	fe842783          	lw	a5,-24(s0)
20012cfa:	20012737          	lui	a4,0x20012
20012cfe:	c6470713          	addi	a4,a4,-924 # 20011c64 <__metal_default_beu_handler>
20012d02:	38e7a823          	sw	a4,912(a5)
/home/letsgrillbananas/wsFreedomStudio/embedded-software/freedom-metal/src/drivers/riscv_cpu.c:521
            intc->metal_int_beu.exint_data = priv;
20012d06:	fe842783          	lw	a5,-24(s0)
20012d0a:	fd042703          	lw	a4,-48(s0)
20012d0e:	38e7ac23          	sw	a4,920(a5)
/home/letsgrillbananas/wsFreedomStudio/embedded-software/freedom-metal/src/drivers/riscv_cpu.c:522
            break;
20012d12:	a089                	j	20012d54 <__metal_driver_riscv_cpu_controller_interrupt_register+0x1c8>
/home/letsgrillbananas/wsFreedomStudio/embedded-software/freedom-metal/src/drivers/riscv_cpu.c:540
        case METAL_INTERRUPT_ID_LC11:
        case METAL_INTERRUPT_ID_LC12:
        case METAL_INTERRUPT_ID_LC13:
        case METAL_INTERRUPT_ID_LC14:
        case METAL_INTERRUPT_ID_LC15:
            intc->metal_int_table[id].handler =
20012d14:	fe842683          	lw	a3,-24(s0)
20012d18:	fd842703          	lw	a4,-40(s0)
20012d1c:	87ba                	mv	a5,a4
20012d1e:	0786                	slli	a5,a5,0x1
20012d20:	97ba                	add	a5,a5,a4
20012d22:	078e                	slli	a5,a5,0x3
20012d24:	97b6                	add	a5,a5,a3
20012d26:	20012737          	lui	a4,0x20012
20012d2a:	a9270713          	addi	a4,a4,-1390 # 20011a92 <__metal_default_interrupt_handler>
20012d2e:	08e7a823          	sw	a4,144(a5)
/home/letsgrillbananas/wsFreedomStudio/embedded-software/freedom-metal/src/drivers/riscv_cpu.c:542
                __metal_default_interrupt_handler;
            intc->metal_int_table[id].sub_int = priv;
20012d32:	fe842683          	lw	a3,-24(s0)
20012d36:	fd842703          	lw	a4,-40(s0)
20012d3a:	87ba                	mv	a5,a4
20012d3c:	0786                	slli	a5,a5,0x1
20012d3e:	97ba                	add	a5,a5,a4
20012d40:	078e                	slli	a5,a5,0x3
20012d42:	97b6                	add	a5,a5,a3
20012d44:	fd042703          	lw	a4,-48(s0)
20012d48:	08e7aa23          	sw	a4,148(a5)
/home/letsgrillbananas/wsFreedomStudio/embedded-software/freedom-metal/src/drivers/riscv_cpu.c:543
            break;
20012d4c:	a021                	j	20012d54 <__metal_driver_riscv_cpu_controller_interrupt_register+0x1c8>
/home/letsgrillbananas/wsFreedomStudio/embedded-software/freedom-metal/src/drivers/riscv_cpu.c:545
        default:
            rc = -12;
20012d4e:	57d1                	li	a5,-12
20012d50:	fef42623          	sw	a5,-20(s0)
/home/letsgrillbananas/wsFreedomStudio/embedded-software/freedom-metal/src/drivers/riscv_cpu.c:548
        }
    }
    return rc;
20012d54:	fec42783          	lw	a5,-20(s0)
/home/letsgrillbananas/wsFreedomStudio/embedded-software/freedom-metal/src/drivers/riscv_cpu.c:549
}
20012d58:	853e                	mv	a0,a5
20012d5a:	50b2                	lw	ra,44(sp)
20012d5c:	5422                	lw	s0,40(sp)
20012d5e:	6145                	addi	sp,sp,48
20012d60:	8082                	ret

20012d62 <__metal_driver_riscv_cpu_controller_interrupt_enable>:
__metal_driver_riscv_cpu_controller_interrupt_enable():
/home/letsgrillbananas/wsFreedomStudio/embedded-software/freedom-metal/src/drivers/riscv_cpu.c:552

int __metal_driver_riscv_cpu_controller_interrupt_enable(
    struct metal_interrupt *controller, int id) {
20012d62:	1101                	addi	sp,sp,-32
20012d64:	ce06                	sw	ra,28(sp)
20012d66:	cc22                	sw	s0,24(sp)
20012d68:	1000                	addi	s0,sp,32
20012d6a:	fea42623          	sw	a0,-20(s0)
20012d6e:	feb42423          	sw	a1,-24(s0)
/home/letsgrillbananas/wsFreedomStudio/embedded-software/freedom-metal/src/drivers/riscv_cpu.c:553
    return __metal_local_interrupt_enable(controller, id, METAL_ENABLE);
20012d72:	fe842783          	lw	a5,-24(s0)
20012d76:	4605                	li	a2,1
20012d78:	85be                	mv	a1,a5
20012d7a:	fec42503          	lw	a0,-20(s0)
20012d7e:	310d                	jal	200129a0 <__metal_local_interrupt_enable>
20012d80:	87aa                	mv	a5,a0
/home/letsgrillbananas/wsFreedomStudio/embedded-software/freedom-metal/src/drivers/riscv_cpu.c:554
}
20012d82:	853e                	mv	a0,a5
20012d84:	40f2                	lw	ra,28(sp)
20012d86:	4462                	lw	s0,24(sp)
20012d88:	6105                	addi	sp,sp,32
20012d8a:	8082                	ret

20012d8c <__metal_driver_riscv_cpu_controller_interrupt_disable>:
__metal_driver_riscv_cpu_controller_interrupt_disable():
/home/letsgrillbananas/wsFreedomStudio/embedded-software/freedom-metal/src/drivers/riscv_cpu.c:557

int __metal_driver_riscv_cpu_controller_interrupt_disable(
    struct metal_interrupt *controller, int id) {
20012d8c:	1101                	addi	sp,sp,-32
20012d8e:	ce06                	sw	ra,28(sp)
20012d90:	cc22                	sw	s0,24(sp)
20012d92:	1000                	addi	s0,sp,32
20012d94:	fea42623          	sw	a0,-20(s0)
20012d98:	feb42423          	sw	a1,-24(s0)
/home/letsgrillbananas/wsFreedomStudio/embedded-software/freedom-metal/src/drivers/riscv_cpu.c:558
    return __metal_local_interrupt_enable(controller, id, METAL_DISABLE);
20012d9c:	fe842783          	lw	a5,-24(s0)
20012da0:	4601                	li	a2,0
20012da2:	85be                	mv	a1,a5
20012da4:	fec42503          	lw	a0,-20(s0)
20012da8:	3ee5                	jal	200129a0 <__metal_local_interrupt_enable>
20012daa:	87aa                	mv	a5,a0
/home/letsgrillbananas/wsFreedomStudio/embedded-software/freedom-metal/src/drivers/riscv_cpu.c:559
}
20012dac:	853e                	mv	a0,a5
20012dae:	40f2                	lw	ra,28(sp)
20012db0:	4462                	lw	s0,24(sp)
20012db2:	6105                	addi	sp,sp,32
20012db4:	8082                	ret

20012db6 <__metal_driver_riscv_cpu_controller_get_vector_mode>:
__metal_driver_riscv_cpu_controller_get_vector_mode():
/home/letsgrillbananas/wsFreedomStudio/embedded-software/freedom-metal/src/drivers/riscv_cpu.c:591
    }
    return -1;
}

metal_vector_mode __metal_driver_riscv_cpu_controller_get_vector_mode(
    struct metal_interrupt *controller) {
20012db6:	1101                	addi	sp,sp,-32
20012db8:	ce06                	sw	ra,28(sp)
20012dba:	cc22                	sw	s0,24(sp)
20012dbc:	1000                	addi	s0,sp,32
20012dbe:	fea42623          	sw	a0,-20(s0)
/home/letsgrillbananas/wsFreedomStudio/embedded-software/freedom-metal/src/drivers/riscv_cpu.c:592
    return __metal_controller_interrupt_vector_mode();
20012dc2:	3c49                	jal	20012854 <__metal_controller_interrupt_vector_mode>
20012dc4:	87aa                	mv	a5,a0
/home/letsgrillbananas/wsFreedomStudio/embedded-software/freedom-metal/src/drivers/riscv_cpu.c:593
}
20012dc6:	853e                	mv	a0,a5
20012dc8:	40f2                	lw	ra,28(sp)
20012dca:	4462                	lw	s0,24(sp)
20012dcc:	6105                	addi	sp,sp,32
20012dce:	8082                	ret

20012dd0 <__metal_driver_riscv_cpu_controller_set_vector_mode>:
__metal_driver_riscv_cpu_controller_set_vector_mode():
/home/letsgrillbananas/wsFreedomStudio/embedded-software/freedom-metal/src/drivers/riscv_cpu.c:596

int __metal_driver_riscv_cpu_controller_set_vector_mode(
    struct metal_interrupt *controller, metal_vector_mode mode) {
20012dd0:	1101                	addi	sp,sp,-32
20012dd2:	ce06                	sw	ra,28(sp)
20012dd4:	cc22                	sw	s0,24(sp)
20012dd6:	1000                	addi	s0,sp,32
20012dd8:	fea42623          	sw	a0,-20(s0)
20012ddc:	feb42423          	sw	a1,-24(s0)
/home/letsgrillbananas/wsFreedomStudio/embedded-software/freedom-metal/src/drivers/riscv_cpu.c:598

    if (mode == METAL_DIRECT_MODE) {
20012de0:	fe842783          	lw	a5,-24(s0)
20012de4:	eb91                	bnez	a5,20012df8 <__metal_driver_riscv_cpu_controller_set_vector_mode+0x28>
/home/letsgrillbananas/wsFreedomStudio/embedded-software/freedom-metal/src/drivers/riscv_cpu.c:599
        __metal_controller_interrupt_vector(
20012de6:	200127b7          	lui	a5,0x20012
20012dea:	d0078593          	addi	a1,a5,-768 # 20011d00 <__metal_exception_handler>
20012dee:	fe842503          	lw	a0,-24(s0)
20012df2:	3c4d                	jal	200128a4 <__metal_controller_interrupt_vector>
/home/letsgrillbananas/wsFreedomStudio/embedded-software/freedom-metal/src/drivers/riscv_cpu.c:601
            mode, (void *)(uintptr_t)&__metal_exception_handler);
        return 0;
20012df4:	4781                	li	a5,0
20012df6:	a005                	j	20012e16 <__metal_driver_riscv_cpu_controller_set_vector_mode+0x46>
/home/letsgrillbananas/wsFreedomStudio/embedded-software/freedom-metal/src/drivers/riscv_cpu.c:603
    }
    if (mode == METAL_VECTOR_MODE) {
20012df8:	fe842703          	lw	a4,-24(s0)
20012dfc:	4785                	li	a5,1
20012dfe:	00f71b63          	bne	a4,a5,20012e14 <__metal_driver_riscv_cpu_controller_set_vector_mode+0x44>
/home/letsgrillbananas/wsFreedomStudio/embedded-software/freedom-metal/src/drivers/riscv_cpu.c:604
        __metal_controller_interrupt_vector(
20012e02:	200147b7          	lui	a5,0x20014
20012e06:	d0078593          	addi	a1,a5,-768 # 20013d00 <__metal_vector_table>
20012e0a:	fe842503          	lw	a0,-24(s0)
20012e0e:	3c59                	jal	200128a4 <__metal_controller_interrupt_vector>
/home/letsgrillbananas/wsFreedomStudio/embedded-software/freedom-metal/src/drivers/riscv_cpu.c:606
            mode, (void *)(uintptr_t)__metal_vector_table);
        return 0;
20012e10:	4781                	li	a5,0
20012e12:	a011                	j	20012e16 <__metal_driver_riscv_cpu_controller_set_vector_mode+0x46>
/home/letsgrillbananas/wsFreedomStudio/embedded-software/freedom-metal/src/drivers/riscv_cpu.c:608
    }
    return -1;
20012e14:	57fd                	li	a5,-1
/home/letsgrillbananas/wsFreedomStudio/embedded-software/freedom-metal/src/drivers/riscv_cpu.c:609
}
20012e16:	853e                	mv	a0,a5
20012e18:	40f2                	lw	ra,28(sp)
20012e1a:	4462                	lw	s0,24(sp)
20012e1c:	6105                	addi	sp,sp,32
20012e1e:	8082                	ret

20012e20 <__metal_driver_riscv_cpu_controller_command_request>:
__metal_driver_riscv_cpu_controller_command_request():
/home/letsgrillbananas/wsFreedomStudio/embedded-software/freedom-metal/src/drivers/riscv_cpu.c:612

int __metal_driver_riscv_cpu_controller_command_request(
    struct metal_interrupt *controller, int cmd, void *data) {
20012e20:	1101                	addi	sp,sp,-32
20012e22:	ce22                	sw	s0,28(sp)
20012e24:	1000                	addi	s0,sp,32
20012e26:	fea42623          	sw	a0,-20(s0)
20012e2a:	feb42423          	sw	a1,-24(s0)
20012e2e:	fec42223          	sw	a2,-28(s0)
/home/letsgrillbananas/wsFreedomStudio/embedded-software/freedom-metal/src/drivers/riscv_cpu.c:615
    /* NOP for now, unless local interrupt lines the like of clic, clint, plic
     */
    return 0;
20012e32:	4781                	li	a5,0
/home/letsgrillbananas/wsFreedomStudio/embedded-software/freedom-metal/src/drivers/riscv_cpu.c:616
}
20012e34:	853e                	mv	a0,a5
20012e36:	4472                	lw	s0,28(sp)
20012e38:	6105                	addi	sp,sp,32
20012e3a:	8082                	ret

20012e3c <__metal_driver_cpu_mcycle_get>:
__metal_driver_cpu_mcycle_get():
/home/letsgrillbananas/wsFreedomStudio/embedded-software/freedom-metal/src/drivers/riscv_cpu.c:620

/* CPU driver !!! */

unsigned long long __metal_driver_cpu_mcycle_get(struct metal_cpu *cpu) {
20012e3c:	7139                	addi	sp,sp,-64
20012e3e:	de22                	sw	s0,60(sp)
20012e40:	0080                	addi	s0,sp,64
20012e42:	fca42623          	sw	a0,-52(s0)
/home/letsgrillbananas/wsFreedomStudio/embedded-software/freedom-metal/src/drivers/riscv_cpu.c:621
    unsigned long long val = 0;
20012e46:	4301                	li	t1,0
20012e48:	4381                	li	t2,0
20012e4a:	fe642423          	sw	t1,-24(s0)
20012e4e:	fe742623          	sw	t2,-20(s0)
/home/letsgrillbananas/wsFreedomStudio/embedded-software/freedom-metal/src/drivers/riscv_cpu.c:627 (discriminator 1)

#if __riscv_xlen == 32
    unsigned long hi, hi1, lo;

    do {
        __asm__ volatile("csrr %0, mcycleh" : "=r"(hi));
20012e52:	b8002573          	csrr	a0,mcycleh
20012e56:	fea42223          	sw	a0,-28(s0)
/home/letsgrillbananas/wsFreedomStudio/embedded-software/freedom-metal/src/drivers/riscv_cpu.c:628 (discriminator 1)
        __asm__ volatile("csrr %0, mcycle" : "=r"(lo));
20012e5a:	b0002573          	csrr	a0,mcycle
20012e5e:	fea42023          	sw	a0,-32(s0)
/home/letsgrillbananas/wsFreedomStudio/embedded-software/freedom-metal/src/drivers/riscv_cpu.c:629 (discriminator 1)
        __asm__ volatile("csrr %0, mcycleh" : "=r"(hi1));
20012e62:	b8002573          	csrr	a0,mcycleh
20012e66:	fca42e23          	sw	a0,-36(s0)
/home/letsgrillbananas/wsFreedomStudio/embedded-software/freedom-metal/src/drivers/riscv_cpu.c:632 (discriminator 1)
        /* hi != hi1 means mcycle overflow during we get value,
         * so we must retry. */
    } while (hi != hi1);
20012e6a:	fe442883          	lw	a7,-28(s0)
20012e6e:	fdc42503          	lw	a0,-36(s0)
20012e72:	fea890e3          	bne	a7,a0,20012e52 <__metal_driver_cpu_mcycle_get+0x16>
/home/letsgrillbananas/wsFreedomStudio/embedded-software/freedom-metal/src/drivers/riscv_cpu.c:634

    val = ((unsigned long long)hi << 32) | lo;
20012e76:	fe442503          	lw	a0,-28(s0)
20012e7a:	85aa                	mv	a1,a0
20012e7c:	4601                	li	a2,0
20012e7e:	00059813          	slli	a6,a1,0x0
20012e82:	4781                	li	a5,0
20012e84:	fe042603          	lw	a2,-32(s0)
20012e88:	86b2                	mv	a3,a2
20012e8a:	4701                	li	a4,0
20012e8c:	00d7e633          	or	a2,a5,a3
20012e90:	fec42423          	sw	a2,-24(s0)
20012e94:	00e867b3          	or	a5,a6,a4
20012e98:	fef42623          	sw	a5,-20(s0)
/home/letsgrillbananas/wsFreedomStudio/embedded-software/freedom-metal/src/drivers/riscv_cpu.c:639
#else
    __asm__ volatile("csrr %0, mcycle" : "=r"(val));
#endif

    return val;
20012e9c:	fe842783          	lw	a5,-24(s0)
20012ea0:	fec42803          	lw	a6,-20(s0)
/home/letsgrillbananas/wsFreedomStudio/embedded-software/freedom-metal/src/drivers/riscv_cpu.c:640
}
20012ea4:	853e                	mv	a0,a5
20012ea6:	85c2                	mv	a1,a6
20012ea8:	5472                	lw	s0,60(sp)
20012eaa:	6121                	addi	sp,sp,64
20012eac:	8082                	ret

20012eae <__metal_driver_cpu_timebase_get>:
__metal_driver_cpu_timebase_get():
/home/letsgrillbananas/wsFreedomStudio/embedded-software/freedom-metal/src/drivers/riscv_cpu.c:642

unsigned long long __metal_driver_cpu_timebase_get(struct metal_cpu *cpu) {
20012eae:	7179                	addi	sp,sp,-48
20012eb0:	d606                	sw	ra,44(sp)
20012eb2:	d422                	sw	s0,40(sp)
20012eb4:	d24a                	sw	s2,36(sp)
20012eb6:	d04e                	sw	s3,32(sp)
20012eb8:	1800                	addi	s0,sp,48
20012eba:	fca42e23          	sw	a0,-36(s0)
/home/letsgrillbananas/wsFreedomStudio/embedded-software/freedom-metal/src/drivers/riscv_cpu.c:644
    int timebase;
    if (!cpu) {
20012ebe:	fdc42783          	lw	a5,-36(s0)
20012ec2:	e781                	bnez	a5,20012eca <__metal_driver_cpu_timebase_get+0x1c>
/home/letsgrillbananas/wsFreedomStudio/embedded-software/freedom-metal/src/drivers/riscv_cpu.c:645
        return 0;
20012ec4:	4901                	li	s2,0
20012ec6:	4981                	li	s3,0
20012ec8:	a821                	j	20012ee0 <__metal_driver_cpu_timebase_get+0x32>
/home/letsgrillbananas/wsFreedomStudio/embedded-software/freedom-metal/src/drivers/riscv_cpu.c:648
    }

    timebase = __metal_driver_cpu_timebase((struct metal_cpu *)cpu);
20012eca:	fdc42503          	lw	a0,-36(s0)
20012ece:	9c7fe0ef          	jal	ra,20011894 <__metal_driver_cpu_timebase>
20012ed2:	fea42623          	sw	a0,-20(s0)
/home/letsgrillbananas/wsFreedomStudio/embedded-software/freedom-metal/src/drivers/riscv_cpu.c:649
    return timebase;
20012ed6:	fec42783          	lw	a5,-20(s0)
20012eda:	893e                	mv	s2,a5
20012edc:	87fd                	srai	a5,a5,0x1f
20012ede:	89be                	mv	s3,a5
20012ee0:	87ca                	mv	a5,s2
20012ee2:	884e                	mv	a6,s3
/home/letsgrillbananas/wsFreedomStudio/embedded-software/freedom-metal/src/drivers/riscv_cpu.c:650
}
20012ee4:	853e                	mv	a0,a5
20012ee6:	85c2                	mv	a1,a6
20012ee8:	50b2                	lw	ra,44(sp)
20012eea:	5422                	lw	s0,40(sp)
20012eec:	5912                	lw	s2,36(sp)
20012eee:	5982                	lw	s3,32(sp)
20012ef0:	6145                	addi	sp,sp,48
20012ef2:	8082                	ret

20012ef4 <__metal_driver_cpu_mtime_get>:
__metal_driver_cpu_mtime_get():
/home/letsgrillbananas/wsFreedomStudio/embedded-software/freedom-metal/src/drivers/riscv_cpu.c:652

unsigned long long __metal_driver_cpu_mtime_get(struct metal_cpu *cpu) {
20012ef4:	7179                	addi	sp,sp,-48
20012ef6:	d606                	sw	ra,44(sp)
20012ef8:	d422                	sw	s0,40(sp)
20012efa:	1800                	addi	s0,sp,48
20012efc:	fca42e23          	sw	a0,-36(s0)
/home/letsgrillbananas/wsFreedomStudio/embedded-software/freedom-metal/src/drivers/riscv_cpu.c:653
    unsigned long long time = 0;
20012f00:	4781                	li	a5,0
20012f02:	4801                	li	a6,0
20012f04:	fef42023          	sw	a5,-32(s0)
20012f08:	ff042223          	sw	a6,-28(s0)
/home/letsgrillbananas/wsFreedomStudio/embedded-software/freedom-metal/src/drivers/riscv_cpu.c:657
    struct metal_interrupt *tmr_intc;
    struct __metal_driver_riscv_cpu_intc *intc =
        (struct __metal_driver_riscv_cpu_intc *)
            __metal_driver_cpu_interrupt_controller(cpu);
20012f0c:	fdc42503          	lw	a0,-36(s0)
20012f10:	9affe0ef          	jal	ra,200118be <__metal_driver_cpu_interrupt_controller>
20012f14:	fea42623          	sw	a0,-20(s0)
/home/letsgrillbananas/wsFreedomStudio/embedded-software/freedom-metal/src/drivers/riscv_cpu.c:659

    if (intc) {
20012f18:	fec42783          	lw	a5,-20(s0)
20012f1c:	c78d                	beqz	a5,20012f46 <__metal_driver_cpu_mtime_get+0x52>
/home/letsgrillbananas/wsFreedomStudio/embedded-software/freedom-metal/src/drivers/riscv_cpu.c:660
        tmr_intc = intc->metal_int_table[METAL_INTERRUPT_ID_TMR].sub_int;
20012f1e:	fec42783          	lw	a5,-20(s0)
20012f22:	13c7a783          	lw	a5,316(a5)
20012f26:	fef42423          	sw	a5,-24(s0)
/home/letsgrillbananas/wsFreedomStudio/embedded-software/freedom-metal/src/drivers/riscv_cpu.c:661
        if (tmr_intc) {
20012f2a:	fe842783          	lw	a5,-24(s0)
20012f2e:	cf81                	beqz	a5,20012f46 <__metal_driver_cpu_mtime_get+0x52>
/home/letsgrillbananas/wsFreedomStudio/embedded-software/freedom-metal/src/drivers/riscv_cpu.c:662
            tmr_intc->vtable->command_request(tmr_intc, METAL_TIMER_MTIME_GET,
20012f30:	fe842783          	lw	a5,-24(s0)
20012f34:	439c                	lw	a5,0(a5)
20012f36:	47f8                	lw	a4,76(a5)
20012f38:	fe040793          	addi	a5,s0,-32
20012f3c:	863e                	mv	a2,a5
20012f3e:	4585                	li	a1,1
20012f40:	fe842503          	lw	a0,-24(s0)
20012f44:	9702                	jalr	a4
/home/letsgrillbananas/wsFreedomStudio/embedded-software/freedom-metal/src/drivers/riscv_cpu.c:666
                                              &time);
        }
    }
    return time;
20012f46:	fe042783          	lw	a5,-32(s0)
20012f4a:	fe442803          	lw	a6,-28(s0)
/home/letsgrillbananas/wsFreedomStudio/embedded-software/freedom-metal/src/drivers/riscv_cpu.c:667
}
20012f4e:	853e                	mv	a0,a5
20012f50:	85c2                	mv	a1,a6
20012f52:	50b2                	lw	ra,44(sp)
20012f54:	5422                	lw	s0,40(sp)
20012f56:	6145                	addi	sp,sp,48
20012f58:	8082                	ret

20012f5a <__metal_driver_cpu_mtimecmp_set>:
__metal_driver_cpu_mtimecmp_set():
/home/letsgrillbananas/wsFreedomStudio/embedded-software/freedom-metal/src/drivers/riscv_cpu.c:670

int __metal_driver_cpu_mtimecmp_set(struct metal_cpu *cpu,
                                    unsigned long long time) {
20012f5a:	7179                	addi	sp,sp,-48
20012f5c:	d606                	sw	ra,44(sp)
20012f5e:	d422                	sw	s0,40(sp)
20012f60:	d226                	sw	s1,36(sp)
20012f62:	1800                	addi	s0,sp,48
20012f64:	fca42e23          	sw	a0,-36(s0)
20012f68:	fcb42823          	sw	a1,-48(s0)
20012f6c:	fcc42a23          	sw	a2,-44(s0)
/home/letsgrillbananas/wsFreedomStudio/embedded-software/freedom-metal/src/drivers/riscv_cpu.c:671
    int rc = -1;
20012f70:	57fd                	li	a5,-1
20012f72:	fef42623          	sw	a5,-20(s0)
/home/letsgrillbananas/wsFreedomStudio/embedded-software/freedom-metal/src/drivers/riscv_cpu.c:675
    struct metal_interrupt *tmr_intc;
    struct __metal_driver_riscv_cpu_intc *intc =
        (struct __metal_driver_riscv_cpu_intc *)
            __metal_driver_cpu_interrupt_controller(cpu);
20012f76:	fdc42503          	lw	a0,-36(s0)
20012f7a:	945fe0ef          	jal	ra,200118be <__metal_driver_cpu_interrupt_controller>
20012f7e:	fea42423          	sw	a0,-24(s0)
/home/letsgrillbananas/wsFreedomStudio/embedded-software/freedom-metal/src/drivers/riscv_cpu.c:677

    if (intc) {
20012f82:	fe842783          	lw	a5,-24(s0)
20012f86:	cf8d                	beqz	a5,20012fc0 <__metal_driver_cpu_mtimecmp_set+0x66>
/home/letsgrillbananas/wsFreedomStudio/embedded-software/freedom-metal/src/drivers/riscv_cpu.c:678
        tmr_intc = intc->metal_int_table[METAL_INTERRUPT_ID_TMR].sub_int;
20012f88:	fe842783          	lw	a5,-24(s0)
20012f8c:	13c7a783          	lw	a5,316(a5)
20012f90:	fef42223          	sw	a5,-28(s0)
/home/letsgrillbananas/wsFreedomStudio/embedded-software/freedom-metal/src/drivers/riscv_cpu.c:679
        if (tmr_intc) {
20012f94:	fe442783          	lw	a5,-28(s0)
20012f98:	c785                	beqz	a5,20012fc0 <__metal_driver_cpu_mtimecmp_set+0x66>
/home/letsgrillbananas/wsFreedomStudio/embedded-software/freedom-metal/src/drivers/riscv_cpu.c:680
            rc = tmr_intc->vtable->mtimecmp_set(
20012f9a:	fe442783          	lw	a5,-28(s0)
20012f9e:	439c                	lw	a5,0(a5)
20012fa0:	4ba4                	lw	s1,80(a5)
20012fa2:	fdc42503          	lw	a0,-36(s0)
20012fa6:	8cbfe0ef          	jal	ra,20011870 <__metal_driver_cpu_hartid>
20012faa:	87aa                	mv	a5,a0
20012fac:	fd042603          	lw	a2,-48(s0)
20012fb0:	fd442683          	lw	a3,-44(s0)
20012fb4:	85be                	mv	a1,a5
20012fb6:	fe442503          	lw	a0,-28(s0)
20012fba:	9482                	jalr	s1
20012fbc:	fea42623          	sw	a0,-20(s0)
/home/letsgrillbananas/wsFreedomStudio/embedded-software/freedom-metal/src/drivers/riscv_cpu.c:684
                tmr_intc, __metal_driver_cpu_hartid(cpu), time);
        }
    }
    return rc;
20012fc0:	fec42783          	lw	a5,-20(s0)
/home/letsgrillbananas/wsFreedomStudio/embedded-software/freedom-metal/src/drivers/riscv_cpu.c:685
}
20012fc4:	853e                	mv	a0,a5
20012fc6:	50b2                	lw	ra,44(sp)
20012fc8:	5422                	lw	s0,40(sp)
20012fca:	5492                	lw	s1,36(sp)
20012fcc:	6145                	addi	sp,sp,48
20012fce:	8082                	ret

20012fd0 <__metal_driver_cpu_timer_controller_interrupt>:
__metal_driver_cpu_timer_controller_interrupt():
/home/letsgrillbananas/wsFreedomStudio/embedded-software/freedom-metal/src/drivers/riscv_cpu.c:688

struct metal_interrupt *
__metal_driver_cpu_timer_controller_interrupt(struct metal_cpu *cpu) {
20012fd0:	1101                	addi	sp,sp,-32
20012fd2:	ce22                	sw	s0,28(sp)
20012fd4:	1000                	addi	s0,sp,32
20012fd6:	fea42623          	sw	a0,-20(s0)
/home/letsgrillbananas/wsFreedomStudio/embedded-software/freedom-metal/src/drivers/riscv_cpu.c:690
#ifdef __METAL_DT_RISCV_CLINT0_HANDLE
    return __METAL_DT_RISCV_CLINT0_HANDLE;
20012fda:	800007b7          	lui	a5,0x80000
20012fde:	49078793          	addi	a5,a5,1168 # 80000490 <__global_pointer$+0xfffff808>
/home/letsgrillbananas/wsFreedomStudio/embedded-software/freedom-metal/src/drivers/riscv_cpu.c:699
#else
#pragma message("There is no interrupt controller for Timer interrupt")
    return NULL;
#endif
#endif
}
20012fe2:	853e                	mv	a0,a5
20012fe4:	4472                	lw	s0,28(sp)
20012fe6:	6105                	addi	sp,sp,32
20012fe8:	8082                	ret

20012fea <__metal_driver_cpu_get_timer_interrupt_id>:
__metal_driver_cpu_get_timer_interrupt_id():
/home/letsgrillbananas/wsFreedomStudio/embedded-software/freedom-metal/src/drivers/riscv_cpu.c:701

int __metal_driver_cpu_get_timer_interrupt_id(struct metal_cpu *cpu) {
20012fea:	1101                	addi	sp,sp,-32
20012fec:	ce22                	sw	s0,28(sp)
20012fee:	1000                	addi	s0,sp,32
20012ff0:	fea42623          	sw	a0,-20(s0)
/home/letsgrillbananas/wsFreedomStudio/embedded-software/freedom-metal/src/drivers/riscv_cpu.c:702
    return METAL_INTERRUPT_ID_TMR;
20012ff4:	479d                	li	a5,7
/home/letsgrillbananas/wsFreedomStudio/embedded-software/freedom-metal/src/drivers/riscv_cpu.c:703
}
20012ff6:	853e                	mv	a0,a5
20012ff8:	4472                	lw	s0,28(sp)
20012ffa:	6105                	addi	sp,sp,32
20012ffc:	8082                	ret

20012ffe <__metal_driver_cpu_sw_controller_interrupt>:
__metal_driver_cpu_sw_controller_interrupt():
/home/letsgrillbananas/wsFreedomStudio/embedded-software/freedom-metal/src/drivers/riscv_cpu.c:706

struct metal_interrupt *
__metal_driver_cpu_sw_controller_interrupt(struct metal_cpu *cpu) {
20012ffe:	1101                	addi	sp,sp,-32
20013000:	ce22                	sw	s0,28(sp)
20013002:	1000                	addi	s0,sp,32
20013004:	fea42623          	sw	a0,-20(s0)
/home/letsgrillbananas/wsFreedomStudio/embedded-software/freedom-metal/src/drivers/riscv_cpu.c:708
#ifdef __METAL_DT_RISCV_CLINT0_HANDLE
    return __METAL_DT_RISCV_CLINT0_HANDLE;
20013008:	800007b7          	lui	a5,0x80000
2001300c:	49078793          	addi	a5,a5,1168 # 80000490 <__global_pointer$+0xfffff808>
/home/letsgrillbananas/wsFreedomStudio/embedded-software/freedom-metal/src/drivers/riscv_cpu.c:717
#else
#pragma message("There is no interrupt controller for Software interrupt")
    return NULL;
#endif
#endif
}
20013010:	853e                	mv	a0,a5
20013012:	4472                	lw	s0,28(sp)
20013014:	6105                	addi	sp,sp,32
20013016:	8082                	ret

20013018 <__metal_driver_cpu_get_sw_interrupt_id>:
__metal_driver_cpu_get_sw_interrupt_id():
/home/letsgrillbananas/wsFreedomStudio/embedded-software/freedom-metal/src/drivers/riscv_cpu.c:719

int __metal_driver_cpu_get_sw_interrupt_id(struct metal_cpu *cpu) {
20013018:	1101                	addi	sp,sp,-32
2001301a:	ce22                	sw	s0,28(sp)
2001301c:	1000                	addi	s0,sp,32
2001301e:	fea42623          	sw	a0,-20(s0)
/home/letsgrillbananas/wsFreedomStudio/embedded-software/freedom-metal/src/drivers/riscv_cpu.c:720
    return METAL_INTERRUPT_ID_SW;
20013022:	478d                	li	a5,3
/home/letsgrillbananas/wsFreedomStudio/embedded-software/freedom-metal/src/drivers/riscv_cpu.c:721
}
20013024:	853e                	mv	a0,a5
20013026:	4472                	lw	s0,28(sp)
20013028:	6105                	addi	sp,sp,32
2001302a:	8082                	ret

2001302c <__metal_driver_cpu_set_sw_ipi>:
__metal_driver_cpu_set_sw_ipi():
/home/letsgrillbananas/wsFreedomStudio/embedded-software/freedom-metal/src/drivers/riscv_cpu.c:723

int __metal_driver_cpu_set_sw_ipi(struct metal_cpu *cpu, int hartid) {
2001302c:	7179                	addi	sp,sp,-48
2001302e:	d606                	sw	ra,44(sp)
20013030:	d422                	sw	s0,40(sp)
20013032:	1800                	addi	s0,sp,48
20013034:	fca42e23          	sw	a0,-36(s0)
20013038:	fcb42c23          	sw	a1,-40(s0)
/home/letsgrillbananas/wsFreedomStudio/embedded-software/freedom-metal/src/drivers/riscv_cpu.c:724
    int rc = -1;
2001303c:	57fd                	li	a5,-1
2001303e:	fef42623          	sw	a5,-20(s0)
/home/letsgrillbananas/wsFreedomStudio/embedded-software/freedom-metal/src/drivers/riscv_cpu.c:728
    struct metal_interrupt *sw_intc;
    struct __metal_driver_riscv_cpu_intc *intc =
        (struct __metal_driver_riscv_cpu_intc *)
            __metal_driver_cpu_interrupt_controller(cpu);
20013042:	fdc42503          	lw	a0,-36(s0)
20013046:	879fe0ef          	jal	ra,200118be <__metal_driver_cpu_interrupt_controller>
2001304a:	fea42423          	sw	a0,-24(s0)
/home/letsgrillbananas/wsFreedomStudio/embedded-software/freedom-metal/src/drivers/riscv_cpu.c:730

    if (intc) {
2001304e:	fe842783          	lw	a5,-24(s0)
20013052:	c79d                	beqz	a5,20013080 <__metal_driver_cpu_set_sw_ipi+0x54>
/home/letsgrillbananas/wsFreedomStudio/embedded-software/freedom-metal/src/drivers/riscv_cpu.c:731
        sw_intc = intc->metal_int_table[METAL_INTERRUPT_ID_SW].sub_int;
20013054:	fe842783          	lw	a5,-24(s0)
20013058:	0dc7a783          	lw	a5,220(a5)
2001305c:	fef42223          	sw	a5,-28(s0)
/home/letsgrillbananas/wsFreedomStudio/embedded-software/freedom-metal/src/drivers/riscv_cpu.c:732
        if (sw_intc) {
20013060:	fe442783          	lw	a5,-28(s0)
20013064:	cf91                	beqz	a5,20013080 <__metal_driver_cpu_set_sw_ipi+0x54>
/home/letsgrillbananas/wsFreedomStudio/embedded-software/freedom-metal/src/drivers/riscv_cpu.c:733
            rc = sw_intc->vtable->command_request(
20013066:	fe442783          	lw	a5,-28(s0)
2001306a:	439c                	lw	a5,0(a5)
2001306c:	47f8                	lw	a4,76(a5)
2001306e:	fd840793          	addi	a5,s0,-40
20013072:	863e                	mv	a2,a5
20013074:	458d                	li	a1,3
20013076:	fe442503          	lw	a0,-28(s0)
2001307a:	9702                	jalr	a4
2001307c:	fea42623          	sw	a0,-20(s0)
/home/letsgrillbananas/wsFreedomStudio/embedded-software/freedom-metal/src/drivers/riscv_cpu.c:737
                sw_intc, METAL_SOFTWARE_IPI_SET, &hartid);
        }
    }
    return rc;
20013080:	fec42783          	lw	a5,-20(s0)
/home/letsgrillbananas/wsFreedomStudio/embedded-software/freedom-metal/src/drivers/riscv_cpu.c:738
}
20013084:	853e                	mv	a0,a5
20013086:	50b2                	lw	ra,44(sp)
20013088:	5422                	lw	s0,40(sp)
2001308a:	6145                	addi	sp,sp,48
2001308c:	8082                	ret

2001308e <__metal_driver_cpu_clear_sw_ipi>:
__metal_driver_cpu_clear_sw_ipi():
/home/letsgrillbananas/wsFreedomStudio/embedded-software/freedom-metal/src/drivers/riscv_cpu.c:740

int __metal_driver_cpu_clear_sw_ipi(struct metal_cpu *cpu, int hartid) {
2001308e:	7179                	addi	sp,sp,-48
20013090:	d606                	sw	ra,44(sp)
20013092:	d422                	sw	s0,40(sp)
20013094:	1800                	addi	s0,sp,48
20013096:	fca42e23          	sw	a0,-36(s0)
2001309a:	fcb42c23          	sw	a1,-40(s0)
/home/letsgrillbananas/wsFreedomStudio/embedded-software/freedom-metal/src/drivers/riscv_cpu.c:741
    int rc = -1;
2001309e:	57fd                	li	a5,-1
200130a0:	fef42623          	sw	a5,-20(s0)
/home/letsgrillbananas/wsFreedomStudio/embedded-software/freedom-metal/src/drivers/riscv_cpu.c:745
    struct metal_interrupt *sw_intc;
    struct __metal_driver_riscv_cpu_intc *intc =
        (struct __metal_driver_riscv_cpu_intc *)
            __metal_driver_cpu_interrupt_controller(cpu);
200130a4:	fdc42503          	lw	a0,-36(s0)
200130a8:	817fe0ef          	jal	ra,200118be <__metal_driver_cpu_interrupt_controller>
200130ac:	fea42423          	sw	a0,-24(s0)
/home/letsgrillbananas/wsFreedomStudio/embedded-software/freedom-metal/src/drivers/riscv_cpu.c:747

    if (intc) {
200130b0:	fe842783          	lw	a5,-24(s0)
200130b4:	c79d                	beqz	a5,200130e2 <__metal_driver_cpu_clear_sw_ipi+0x54>
/home/letsgrillbananas/wsFreedomStudio/embedded-software/freedom-metal/src/drivers/riscv_cpu.c:748
        sw_intc = intc->metal_int_table[METAL_INTERRUPT_ID_SW].sub_int;
200130b6:	fe842783          	lw	a5,-24(s0)
200130ba:	0dc7a783          	lw	a5,220(a5)
200130be:	fef42223          	sw	a5,-28(s0)
/home/letsgrillbananas/wsFreedomStudio/embedded-software/freedom-metal/src/drivers/riscv_cpu.c:749
        if (sw_intc) {
200130c2:	fe442783          	lw	a5,-28(s0)
200130c6:	cf91                	beqz	a5,200130e2 <__metal_driver_cpu_clear_sw_ipi+0x54>
/home/letsgrillbananas/wsFreedomStudio/embedded-software/freedom-metal/src/drivers/riscv_cpu.c:750
            rc = sw_intc->vtable->command_request(
200130c8:	fe442783          	lw	a5,-28(s0)
200130cc:	439c                	lw	a5,0(a5)
200130ce:	47f8                	lw	a4,76(a5)
200130d0:	fd840793          	addi	a5,s0,-40
200130d4:	863e                	mv	a2,a5
200130d6:	4589                	li	a1,2
200130d8:	fe442503          	lw	a0,-28(s0)
200130dc:	9702                	jalr	a4
200130de:	fea42623          	sw	a0,-20(s0)
/home/letsgrillbananas/wsFreedomStudio/embedded-software/freedom-metal/src/drivers/riscv_cpu.c:754
                sw_intc, METAL_SOFTWARE_IPI_CLEAR, &hartid);
        }
    }
    return rc;
200130e2:	fec42783          	lw	a5,-20(s0)
/home/letsgrillbananas/wsFreedomStudio/embedded-software/freedom-metal/src/drivers/riscv_cpu.c:755
}
200130e6:	853e                	mv	a0,a5
200130e8:	50b2                	lw	ra,44(sp)
200130ea:	5422                	lw	s0,40(sp)
200130ec:	6145                	addi	sp,sp,48
200130ee:	8082                	ret

200130f0 <__metal_driver_cpu_get_msip>:
__metal_driver_cpu_get_msip():
/home/letsgrillbananas/wsFreedomStudio/embedded-software/freedom-metal/src/drivers/riscv_cpu.c:757

int __metal_driver_cpu_get_msip(struct metal_cpu *cpu, int hartid) {
200130f0:	7179                	addi	sp,sp,-48
200130f2:	d606                	sw	ra,44(sp)
200130f4:	d422                	sw	s0,40(sp)
200130f6:	1800                	addi	s0,sp,48
200130f8:	fca42e23          	sw	a0,-36(s0)
200130fc:	fcb42c23          	sw	a1,-40(s0)
/home/letsgrillbananas/wsFreedomStudio/embedded-software/freedom-metal/src/drivers/riscv_cpu.c:758
    int rc = 0;
20013100:	fe042623          	sw	zero,-20(s0)
/home/letsgrillbananas/wsFreedomStudio/embedded-software/freedom-metal/src/drivers/riscv_cpu.c:762
    struct metal_interrupt *sw_intc;
    struct __metal_driver_riscv_cpu_intc *intc =
        (struct __metal_driver_riscv_cpu_intc *)
            __metal_driver_cpu_interrupt_controller(cpu);
20013104:	fdc42503          	lw	a0,-36(s0)
20013108:	fb6fe0ef          	jal	ra,200118be <__metal_driver_cpu_interrupt_controller>
2001310c:	fea42423          	sw	a0,-24(s0)
/home/letsgrillbananas/wsFreedomStudio/embedded-software/freedom-metal/src/drivers/riscv_cpu.c:764

    if (intc) {
20013110:	fe842783          	lw	a5,-24(s0)
20013114:	c79d                	beqz	a5,20013142 <__metal_driver_cpu_get_msip+0x52>
/home/letsgrillbananas/wsFreedomStudio/embedded-software/freedom-metal/src/drivers/riscv_cpu.c:765
        sw_intc = intc->metal_int_table[METAL_INTERRUPT_ID_SW].sub_int;
20013116:	fe842783          	lw	a5,-24(s0)
2001311a:	0dc7a783          	lw	a5,220(a5)
2001311e:	fef42223          	sw	a5,-28(s0)
/home/letsgrillbananas/wsFreedomStudio/embedded-software/freedom-metal/src/drivers/riscv_cpu.c:766
        if (sw_intc) {
20013122:	fe442783          	lw	a5,-28(s0)
20013126:	cf91                	beqz	a5,20013142 <__metal_driver_cpu_get_msip+0x52>
/home/letsgrillbananas/wsFreedomStudio/embedded-software/freedom-metal/src/drivers/riscv_cpu.c:767
            rc = sw_intc->vtable->command_request(
20013128:	fe442783          	lw	a5,-28(s0)
2001312c:	439c                	lw	a5,0(a5)
2001312e:	47f8                	lw	a4,76(a5)
20013130:	fd840793          	addi	a5,s0,-40
20013134:	863e                	mv	a2,a5
20013136:	4591                	li	a1,4
20013138:	fe442503          	lw	a0,-28(s0)
2001313c:	9702                	jalr	a4
2001313e:	fea42623          	sw	a0,-20(s0)
/home/letsgrillbananas/wsFreedomStudio/embedded-software/freedom-metal/src/drivers/riscv_cpu.c:771
                sw_intc, METAL_SOFTWARE_MSIP_GET, &hartid);
        }
    }
    return rc;
20013142:	fec42783          	lw	a5,-20(s0)
/home/letsgrillbananas/wsFreedomStudio/embedded-software/freedom-metal/src/drivers/riscv_cpu.c:772
}
20013146:	853e                	mv	a0,a5
20013148:	50b2                	lw	ra,44(sp)
2001314a:	5422                	lw	s0,40(sp)
2001314c:	6145                	addi	sp,sp,48
2001314e:	8082                	ret

20013150 <__metal_driver_cpu_controller_interrupt>:
__metal_driver_cpu_controller_interrupt():
/home/letsgrillbananas/wsFreedomStudio/embedded-software/freedom-metal/src/drivers/riscv_cpu.c:775

struct metal_interrupt *
__metal_driver_cpu_controller_interrupt(struct metal_cpu *cpu) {
20013150:	1101                	addi	sp,sp,-32
20013152:	ce06                	sw	ra,28(sp)
20013154:	cc22                	sw	s0,24(sp)
20013156:	1000                	addi	s0,sp,32
20013158:	fea42623          	sw	a0,-20(s0)
/home/letsgrillbananas/wsFreedomStudio/embedded-software/freedom-metal/src/drivers/riscv_cpu.c:776
    return __metal_driver_cpu_interrupt_controller(cpu);
2001315c:	fec42503          	lw	a0,-20(s0)
20013160:	f5efe0ef          	jal	ra,200118be <__metal_driver_cpu_interrupt_controller>
20013164:	87aa                	mv	a5,a0
/home/letsgrillbananas/wsFreedomStudio/embedded-software/freedom-metal/src/drivers/riscv_cpu.c:777
}
20013166:	853e                	mv	a0,a5
20013168:	40f2                	lw	ra,28(sp)
2001316a:	4462                	lw	s0,24(sp)
2001316c:	6105                	addi	sp,sp,32
2001316e:	8082                	ret

20013170 <__metal_driver_cpu_exception_register>:
__metal_driver_cpu_exception_register():
/home/letsgrillbananas/wsFreedomStudio/embedded-software/freedom-metal/src/drivers/riscv_cpu.c:798
    }
    return -1;
}

int __metal_driver_cpu_exception_register(struct metal_cpu *cpu, int ecode,
                                          metal_exception_handler_t isr) {
20013170:	7179                	addi	sp,sp,-48
20013172:	d606                	sw	ra,44(sp)
20013174:	d422                	sw	s0,40(sp)
20013176:	1800                	addi	s0,sp,48
20013178:	fca42e23          	sw	a0,-36(s0)
2001317c:	fcb42c23          	sw	a1,-40(s0)
20013180:	fcc42a23          	sw	a2,-44(s0)
/home/letsgrillbananas/wsFreedomStudio/embedded-software/freedom-metal/src/drivers/riscv_cpu.c:801
    struct __metal_driver_riscv_cpu_intc *intc =
        (struct __metal_driver_riscv_cpu_intc *)
            __metal_driver_cpu_interrupt_controller(cpu);
20013184:	fdc42503          	lw	a0,-36(s0)
20013188:	f36fe0ef          	jal	ra,200118be <__metal_driver_cpu_interrupt_controller>
2001318c:	fea42623          	sw	a0,-20(s0)
/home/letsgrillbananas/wsFreedomStudio/embedded-software/freedom-metal/src/drivers/riscv_cpu.c:803

    if (intc) {
20013190:	fec42783          	lw	a5,-20(s0)
20013194:	cb99                	beqz	a5,200131aa <__metal_driver_cpu_exception_register+0x3a>
/home/letsgrillbananas/wsFreedomStudio/embedded-software/freedom-metal/src/drivers/riscv_cpu.c:804
        return __metal_exception_register((struct metal_interrupt *)intc, ecode,
20013196:	fd442603          	lw	a2,-44(s0)
2001319a:	fd842583          	lw	a1,-40(s0)
2001319e:	fec42503          	lw	a0,-20(s0)
200131a2:	8bbff0ef          	jal	ra,20012a5c <__metal_exception_register>
200131a6:	87aa                	mv	a5,a0
200131a8:	a011                	j	200131ac <__metal_driver_cpu_exception_register+0x3c>
/home/letsgrillbananas/wsFreedomStudio/embedded-software/freedom-metal/src/drivers/riscv_cpu.c:807
                                          isr);
    }
    return -1;
200131aa:	57fd                	li	a5,-1
/home/letsgrillbananas/wsFreedomStudio/embedded-software/freedom-metal/src/drivers/riscv_cpu.c:808
}
200131ac:	853e                	mv	a0,a5
200131ae:	50b2                	lw	ra,44(sp)
200131b0:	5422                	lw	s0,40(sp)
200131b2:	6145                	addi	sp,sp,48
200131b4:	8082                	ret

200131b6 <__metal_driver_cpu_get_instruction_length>:
__metal_driver_cpu_get_instruction_length():
/home/letsgrillbananas/wsFreedomStudio/embedded-software/freedom-metal/src/drivers/riscv_cpu.c:811

int __metal_driver_cpu_get_instruction_length(struct metal_cpu *cpu,
                                              uintptr_t epc) {
200131b6:	1101                	addi	sp,sp,-32
200131b8:	ce22                	sw	s0,28(sp)
200131ba:	1000                	addi	s0,sp,32
200131bc:	fea42623          	sw	a0,-20(s0)
200131c0:	feb42423          	sw	a1,-24(s0)
/home/letsgrillbananas/wsFreedomStudio/embedded-software/freedom-metal/src/drivers/riscv_cpu.c:817
    /**
     * Per ISA compressed instruction has last two bits of opcode set.
     * The encoding '00' '01' '10' are used for compressed instruction.
     * Only enconding '11' isn't regarded as compressed instruction (>16b).
     */
    return ((*(unsigned short *)epc & METAL_INSN_LENGTH_MASK) ==
200131c4:	fe842783          	lw	a5,-24(s0)
200131c8:	0007d783          	lhu	a5,0(a5)
200131cc:	0037f713          	andi	a4,a5,3
/home/letsgrillbananas/wsFreedomStudio/embedded-software/freedom-metal/src/drivers/riscv_cpu.c:820
            METAL_INSN_NOT_COMPRESSED)
               ? 4
               : 2;
200131d0:	478d                	li	a5,3
200131d2:	00f71463          	bne	a4,a5,200131da <__metal_driver_cpu_get_instruction_length+0x24>
/home/letsgrillbananas/wsFreedomStudio/embedded-software/freedom-metal/src/drivers/riscv_cpu.c:820 (discriminator 1)
200131d6:	4791                	li	a5,4
200131d8:	a011                	j	200131dc <__metal_driver_cpu_get_instruction_length+0x26>
/home/letsgrillbananas/wsFreedomStudio/embedded-software/freedom-metal/src/drivers/riscv_cpu.c:820 (discriminator 2)
200131da:	4789                	li	a5,2
/home/letsgrillbananas/wsFreedomStudio/embedded-software/freedom-metal/src/drivers/riscv_cpu.c:821 (discriminator 5)
}
200131dc:	853e                	mv	a0,a5
200131de:	4472                	lw	s0,28(sp)
200131e0:	6105                	addi	sp,sp,32
200131e2:	8082                	ret

200131e4 <__metal_driver_cpu_get_exception_pc>:
__metal_driver_cpu_get_exception_pc():
/home/letsgrillbananas/wsFreedomStudio/embedded-software/freedom-metal/src/drivers/riscv_cpu.c:823

uintptr_t __metal_driver_cpu_get_exception_pc(struct metal_cpu *cpu) {
200131e4:	7179                	addi	sp,sp,-48
200131e6:	d622                	sw	s0,44(sp)
200131e8:	1800                	addi	s0,sp,48
200131ea:	fca42e23          	sw	a0,-36(s0)
/home/letsgrillbananas/wsFreedomStudio/embedded-software/freedom-metal/src/drivers/riscv_cpu.c:825
    uintptr_t mepc;
    __asm__ volatile("csrr %0, mepc" : "=r"(mepc));
200131ee:	341027f3          	csrr	a5,mepc
200131f2:	fef42623          	sw	a5,-20(s0)
/home/letsgrillbananas/wsFreedomStudio/embedded-software/freedom-metal/src/drivers/riscv_cpu.c:826
    return mepc;
200131f6:	fec42783          	lw	a5,-20(s0)
/home/letsgrillbananas/wsFreedomStudio/embedded-software/freedom-metal/src/drivers/riscv_cpu.c:827
}
200131fa:	853e                	mv	a0,a5
200131fc:	5432                	lw	s0,44(sp)
200131fe:	6145                	addi	sp,sp,48
20013200:	8082                	ret

20013202 <__metal_driver_cpu_set_exception_pc>:
__metal_driver_cpu_set_exception_pc():
/home/letsgrillbananas/wsFreedomStudio/embedded-software/freedom-metal/src/drivers/riscv_cpu.c:829

int __metal_driver_cpu_set_exception_pc(struct metal_cpu *cpu, uintptr_t mepc) {
20013202:	1101                	addi	sp,sp,-32
20013204:	ce22                	sw	s0,28(sp)
20013206:	1000                	addi	s0,sp,32
20013208:	fea42623          	sw	a0,-20(s0)
2001320c:	feb42423          	sw	a1,-24(s0)
/home/letsgrillbananas/wsFreedomStudio/embedded-software/freedom-metal/src/drivers/riscv_cpu.c:830
    __asm__ volatile("csrw mepc, %0" ::"r"(mepc));
20013210:	fe842783          	lw	a5,-24(s0)
20013214:	34179073          	csrw	mepc,a5
/home/letsgrillbananas/wsFreedomStudio/embedded-software/freedom-metal/src/drivers/riscv_cpu.c:831
    return 0;
20013218:	4781                	li	a5,0
/home/letsgrillbananas/wsFreedomStudio/embedded-software/freedom-metal/src/drivers/riscv_cpu.c:832
}
2001321a:	853e                	mv	a0,a5
2001321c:	4472                	lw	s0,28(sp)
2001321e:	6105                	addi	sp,sp,32
20013220:	8082                	ret

20013222 <__metal_driver_cpu_get_buserror>:
__metal_driver_cpu_get_buserror():
/home/letsgrillbananas/wsFreedomStudio/embedded-software/freedom-metal/src/drivers/riscv_cpu.c:834

struct metal_buserror *__metal_driver_cpu_get_buserror(struct metal_cpu *cpu) {
20013222:	1101                	addi	sp,sp,-32
20013224:	ce06                	sw	ra,28(sp)
20013226:	cc22                	sw	s0,24(sp)
20013228:	1000                	addi	s0,sp,32
2001322a:	fea42623          	sw	a0,-20(s0)
/home/letsgrillbananas/wsFreedomStudio/embedded-software/freedom-metal/src/drivers/riscv_cpu.c:835
    return __metal_driver_cpu_buserror(cpu);
2001322e:	fec42503          	lw	a0,-20(s0)
20013232:	eb6fe0ef          	jal	ra,200118e8 <__metal_driver_cpu_buserror>
20013236:	87aa                	mv	a5,a0
/home/letsgrillbananas/wsFreedomStudio/embedded-software/freedom-metal/src/drivers/riscv_cpu.c:836
}
20013238:	853e                	mv	a0,a5
2001323a:	40f2                	lw	ra,28(sp)
2001323c:	4462                	lw	s0,24(sp)
2001323e:	6105                	addi	sp,sp,32
20013240:	8082                	ret

20013242 <__metal_driver_sifive_fe310_g000_hfrosc_ref>:
__metal_driver_sifive_fe310_g000_hfrosc_ref():
/home/letsgrillbananas/wsFreedomStudio/embedded-software/bsp/build/debug/./metal/machine.h:1242



/* --------------------- sifive_fe310_g000_hfrosc ------------ */
static __inline__ struct metal_clock * __metal_driver_sifive_fe310_g000_hfrosc_ref(const struct metal_clock *clock)
{
20013242:	1101                	addi	sp,sp,-32
20013244:	ce22                	sw	s0,28(sp)
20013246:	1000                	addi	s0,sp,32
20013248:	fea42623          	sw	a0,-20(s0)
/home/letsgrillbananas/wsFreedomStudio/embedded-software/bsp/build/debug/./metal/machine.h:1243
		return (struct metal_clock *)&__metal_dt_clock_2.clock;
2001324c:	800007b7          	lui	a5,0x80000
20013250:	06c78793          	addi	a5,a5,108 # 8000006c <__global_pointer$+0xfffff3e4>
/home/letsgrillbananas/wsFreedomStudio/embedded-software/bsp/build/debug/./metal/machine.h:1244
}
20013254:	853e                	mv	a0,a5
20013256:	4472                	lw	s0,28(sp)
20013258:	6105                	addi	sp,sp,32
2001325a:	8082                	ret

2001325c <__metal_driver_sifive_fe310_g000_hfrosc_config_base>:
__metal_driver_sifive_fe310_g000_hfrosc_config_base():
/home/letsgrillbananas/wsFreedomStudio/embedded-software/bsp/build/debug/./metal/machine.h:1247

static __inline__ struct __metal_driver_sifive_fe310_g000_prci * __metal_driver_sifive_fe310_g000_hfrosc_config_base(const struct metal_clock *clock)
{
2001325c:	1101                	addi	sp,sp,-32
2001325e:	ce22                	sw	s0,28(sp)
20013260:	1000                	addi	s0,sp,32
20013262:	fea42623          	sw	a0,-20(s0)
/home/letsgrillbananas/wsFreedomStudio/embedded-software/bsp/build/debug/./metal/machine.h:1248
		return (struct __metal_driver_sifive_fe310_g000_prci *)&__metal_dt_prci_10008000;
20013266:	81818793          	addi	a5,gp,-2024 # 800004a0 <__metal_dt_prci_10008000>
/home/letsgrillbananas/wsFreedomStudio/embedded-software/bsp/build/debug/./metal/machine.h:1249
}
2001326a:	853e                	mv	a0,a5
2001326c:	4472                	lw	s0,28(sp)
2001326e:	6105                	addi	sp,sp,32
20013270:	8082                	ret

20013272 <__metal_driver_sifive_fe310_g000_hfrosc_config_offset>:
__metal_driver_sifive_fe310_g000_hfrosc_config_offset():
/home/letsgrillbananas/wsFreedomStudio/embedded-software/bsp/build/debug/./metal/machine.h:1257
{
		return &__metal_driver_vtable_sifive_fe310_g000_prci;
}

static __inline__ long __metal_driver_sifive_fe310_g000_hfrosc_config_offset(const struct metal_clock *clock)
{
20013272:	1101                	addi	sp,sp,-32
20013274:	ce22                	sw	s0,28(sp)
20013276:	1000                	addi	s0,sp,32
20013278:	fea42623          	sw	a0,-20(s0)
/home/letsgrillbananas/wsFreedomStudio/embedded-software/bsp/build/debug/./metal/machine.h:1258
		return METAL_SIFIVE_FE310_G000_PRCI_HFROSCCFG;
2001327c:	4781                	li	a5,0
/home/letsgrillbananas/wsFreedomStudio/embedded-software/bsp/build/debug/./metal/machine.h:1259
}
2001327e:	853e                	mv	a0,a5
20013280:	4472                	lw	s0,28(sp)
20013282:	6105                	addi	sp,sp,32
20013284:	8082                	ret

20013286 <__metal_driver_sifive_fe310_g000_prci_vtable>:
__metal_driver_sifive_fe310_g000_prci_vtable():
/home/letsgrillbananas/wsFreedomStudio/embedded-software/bsp/build/debug/./metal/machine.h:1374
{
		return METAL_SIFIVE_FE310_G000_PRCI_10008000_SIZE;
}

static __inline__ const struct __metal_driver_vtable_sifive_fe310_g000_prci * __metal_driver_sifive_fe310_g000_prci_vtable( )
{
20013286:	1141                	addi	sp,sp,-16
20013288:	c622                	sw	s0,12(sp)
2001328a:	0800                	addi	s0,sp,16
/home/letsgrillbananas/wsFreedomStudio/embedded-software/bsp/build/debug/./metal/machine.h:1375
		return &__metal_driver_vtable_sifive_fe310_g000_prci;
2001328c:	82c18793          	addi	a5,gp,-2004 # 800004b4 <__metal_driver_vtable_sifive_fe310_g000_prci>
/home/letsgrillbananas/wsFreedomStudio/embedded-software/bsp/build/debug/./metal/machine.h:1376
}
20013290:	853e                	mv	a0,a5
20013292:	4432                	lw	s0,12(sp)
20013294:	0141                	addi	sp,sp,16
20013296:	8082                	ret

20013298 <__metal_driver_sifive_fe310_g000_hfrosc_get_rate_hz>:
__metal_driver_sifive_fe310_g000_hfrosc_get_rate_hz():
/home/letsgrillbananas/wsFreedomStudio/embedded-software/freedom-metal/src/drivers/sifive_fe310-g000_hfrosc.c:17
#define CONFIG_TRIM 0x001F0000UL
#define CONFIG_ENABLE 0x40000000UL
#define CONFIG_READY 0x80000000UL

long __metal_driver_sifive_fe310_g000_hfrosc_get_rate_hz(
    const struct metal_clock *clock) {
20013298:	7139                	addi	sp,sp,-64
2001329a:	de06                	sw	ra,60(sp)
2001329c:	dc22                	sw	s0,56(sp)
2001329e:	0080                	addi	s0,sp,64
200132a0:	fca42623          	sw	a0,-52(s0)
/home/letsgrillbananas/wsFreedomStudio/embedded-software/freedom-metal/src/drivers/sifive_fe310-g000_hfrosc.c:19
    struct metal_clock *ref =
        __metal_driver_sifive_fe310_g000_hfrosc_ref(clock);
200132a4:	fcc42503          	lw	a0,-52(s0)
200132a8:	3f69                	jal	20013242 <__metal_driver_sifive_fe310_g000_hfrosc_ref>
200132aa:	fea42623          	sw	a0,-20(s0)
/home/letsgrillbananas/wsFreedomStudio/embedded-software/freedom-metal/src/drivers/sifive_fe310-g000_hfrosc.c:21
    long config_offset =
        __metal_driver_sifive_fe310_g000_hfrosc_config_offset(clock);
200132ae:	fcc42503          	lw	a0,-52(s0)
200132b2:	37c1                	jal	20013272 <__metal_driver_sifive_fe310_g000_hfrosc_config_offset>
200132b4:	fea42423          	sw	a0,-24(s0)
/home/letsgrillbananas/wsFreedomStudio/embedded-software/freedom-metal/src/drivers/sifive_fe310-g000_hfrosc.c:23
    struct __metal_driver_sifive_fe310_g000_prci *config_base =
        __metal_driver_sifive_fe310_g000_hfrosc_config_base(clock);
200132b8:	fcc42503          	lw	a0,-52(s0)
200132bc:	3745                	jal	2001325c <__metal_driver_sifive_fe310_g000_hfrosc_config_base>
200132be:	fea42223          	sw	a0,-28(s0)
/home/letsgrillbananas/wsFreedomStudio/embedded-software/freedom-metal/src/drivers/sifive_fe310-g000_hfrosc.c:25
    const struct __metal_driver_vtable_sifive_fe310_g000_prci *vtable =
        __metal_driver_sifive_fe310_g000_prci_vtable();
200132c2:	37d1                	jal	20013286 <__metal_driver_sifive_fe310_g000_prci_vtable>
200132c4:	fea42023          	sw	a0,-32(s0)
/home/letsgrillbananas/wsFreedomStudio/embedded-software/freedom-metal/src/drivers/sifive_fe310-g000_hfrosc.c:26
    long cfg = vtable->get_reg(config_base, config_offset);
200132c8:	fe042783          	lw	a5,-32(s0)
200132cc:	439c                	lw	a5,0(a5)
200132ce:	fe842583          	lw	a1,-24(s0)
200132d2:	fe442503          	lw	a0,-28(s0)
200132d6:	9782                	jalr	a5
200132d8:	fca42e23          	sw	a0,-36(s0)
/home/letsgrillbananas/wsFreedomStudio/embedded-software/freedom-metal/src/drivers/sifive_fe310-g000_hfrosc.c:28

    if ((cfg & CONFIG_ENABLE) == 0)
200132dc:	fdc42703          	lw	a4,-36(s0)
200132e0:	400007b7          	lui	a5,0x40000
200132e4:	8ff9                	and	a5,a5,a4
200132e6:	e399                	bnez	a5,200132ec <__metal_driver_sifive_fe310_g000_hfrosc_get_rate_hz+0x54>
/home/letsgrillbananas/wsFreedomStudio/embedded-software/freedom-metal/src/drivers/sifive_fe310-g000_hfrosc.c:29
        return -1;
200132e8:	57fd                	li	a5,-1
200132ea:	a025                	j	20013312 <__metal_driver_sifive_fe310_g000_hfrosc_get_rate_hz+0x7a>
/home/letsgrillbananas/wsFreedomStudio/embedded-software/freedom-metal/src/drivers/sifive_fe310-g000_hfrosc.c:30
    if ((cfg & CONFIG_READY) == 0)
200132ec:	fdc42783          	lw	a5,-36(s0)
200132f0:	0007c463          	bltz	a5,200132f8 <__metal_driver_sifive_fe310_g000_hfrosc_get_rate_hz+0x60>
/home/letsgrillbananas/wsFreedomStudio/embedded-software/freedom-metal/src/drivers/sifive_fe310-g000_hfrosc.c:31
        return -1;
200132f4:	57fd                	li	a5,-1
200132f6:	a831                	j	20013312 <__metal_driver_sifive_fe310_g000_hfrosc_get_rate_hz+0x7a>
/home/letsgrillbananas/wsFreedomStudio/embedded-software/freedom-metal/src/drivers/sifive_fe310-g000_hfrosc.c:32
    return metal_clock_get_rate_hz(ref) / ((cfg & CONFIG_DIVIDER) + 1);
200132f8:	fec42503          	lw	a0,-20(s0)
200132fc:	0ab000ef          	jal	ra,20013ba6 <metal_clock_get_rate_hz>
20013300:	87aa                	mv	a5,a0
20013302:	873e                	mv	a4,a5
20013304:	fdc42783          	lw	a5,-36(s0)
20013308:	03f7f793          	andi	a5,a5,63
2001330c:	0785                	addi	a5,a5,1
2001330e:	02f757b3          	divu	a5,a4,a5
/home/letsgrillbananas/wsFreedomStudio/embedded-software/freedom-metal/src/drivers/sifive_fe310-g000_hfrosc.c:33
}
20013312:	853e                	mv	a0,a5
20013314:	50f2                	lw	ra,60(sp)
20013316:	5462                	lw	s0,56(sp)
20013318:	6121                	addi	sp,sp,64
2001331a:	8082                	ret

2001331c <__metal_driver_sifive_fe310_g000_hfrosc_set_rate_hz>:
__metal_driver_sifive_fe310_g000_hfrosc_set_rate_hz():
/home/letsgrillbananas/wsFreedomStudio/embedded-software/freedom-metal/src/drivers/sifive_fe310-g000_hfrosc.c:36

long __metal_driver_sifive_fe310_g000_hfrosc_set_rate_hz(
    struct metal_clock *clock, long rate) {
2001331c:	1101                	addi	sp,sp,-32
2001331e:	ce06                	sw	ra,28(sp)
20013320:	cc22                	sw	s0,24(sp)
20013322:	1000                	addi	s0,sp,32
20013324:	fea42623          	sw	a0,-20(s0)
20013328:	feb42423          	sw	a1,-24(s0)
/home/letsgrillbananas/wsFreedomStudio/embedded-software/freedom-metal/src/drivers/sifive_fe310-g000_hfrosc.c:37
    return __metal_driver_sifive_fe310_g000_hfrosc_get_rate_hz(clock);
2001332c:	fec42503          	lw	a0,-20(s0)
20013330:	37a5                	jal	20013298 <__metal_driver_sifive_fe310_g000_hfrosc_get_rate_hz>
20013332:	87aa                	mv	a5,a0
/home/letsgrillbananas/wsFreedomStudio/embedded-software/freedom-metal/src/drivers/sifive_fe310-g000_hfrosc.c:38
}
20013334:	853e                	mv	a0,a5
20013336:	40f2                	lw	ra,28(sp)
20013338:	4462                	lw	s0,24(sp)
2001333a:	6105                	addi	sp,sp,32
2001333c:	8082                	ret

2001333e <__metal_driver_sifive_fe310_g000_hfxosc_ref>:
__metal_driver_sifive_fe310_g000_hfxosc_ref():
/home/letsgrillbananas/wsFreedomStudio/embedded-software/bsp/build/debug/./metal/machine.h:1265
{
2001333e:	1101                	addi	sp,sp,-32
20013340:	ce22                	sw	s0,28(sp)
20013342:	1000                	addi	s0,sp,32
20013344:	fea42623          	sw	a0,-20(s0)
/home/letsgrillbananas/wsFreedomStudio/embedded-software/bsp/build/debug/./metal/machine.h:1266
		return (struct metal_clock *)&__metal_dt_clock_0.clock;
20013348:	800007b7          	lui	a5,0x80000
2001334c:	06078793          	addi	a5,a5,96 # 80000060 <__global_pointer$+0xfffff3d8>
/home/letsgrillbananas/wsFreedomStudio/embedded-software/bsp/build/debug/./metal/machine.h:1267
}
20013350:	853e                	mv	a0,a5
20013352:	4472                	lw	s0,28(sp)
20013354:	6105                	addi	sp,sp,32
20013356:	8082                	ret

20013358 <__metal_driver_sifive_fe310_g000_hfxosc_config_base>:
__metal_driver_sifive_fe310_g000_hfxosc_config_base():
/home/letsgrillbananas/wsFreedomStudio/embedded-software/bsp/build/debug/./metal/machine.h:1270
{
20013358:	1101                	addi	sp,sp,-32
2001335a:	ce22                	sw	s0,28(sp)
2001335c:	1000                	addi	s0,sp,32
2001335e:	fea42623          	sw	a0,-20(s0)
/home/letsgrillbananas/wsFreedomStudio/embedded-software/bsp/build/debug/./metal/machine.h:1271
		return (struct __metal_driver_sifive_fe310_g000_prci *)&__metal_dt_prci_10008000;
20013362:	81818793          	addi	a5,gp,-2024 # 800004a0 <__metal_dt_prci_10008000>
/home/letsgrillbananas/wsFreedomStudio/embedded-software/bsp/build/debug/./metal/machine.h:1272
}
20013366:	853e                	mv	a0,a5
20013368:	4472                	lw	s0,28(sp)
2001336a:	6105                	addi	sp,sp,32
2001336c:	8082                	ret

2001336e <__metal_driver_sifive_fe310_g000_hfxosc_config_offset>:
__metal_driver_sifive_fe310_g000_hfxosc_config_offset():
/home/letsgrillbananas/wsFreedomStudio/embedded-software/bsp/build/debug/./metal/machine.h:1275
{
2001336e:	1101                	addi	sp,sp,-32
20013370:	ce22                	sw	s0,28(sp)
20013372:	1000                	addi	s0,sp,32
20013374:	fea42623          	sw	a0,-20(s0)
/home/letsgrillbananas/wsFreedomStudio/embedded-software/bsp/build/debug/./metal/machine.h:1276
		return METAL_SIFIVE_FE310_G000_PRCI_HFXOSCCFG;
20013378:	4791                	li	a5,4
/home/letsgrillbananas/wsFreedomStudio/embedded-software/bsp/build/debug/./metal/machine.h:1277
}
2001337a:	853e                	mv	a0,a5
2001337c:	4472                	lw	s0,28(sp)
2001337e:	6105                	addi	sp,sp,32
20013380:	8082                	ret

20013382 <__metal_driver_sifive_fe310_g000_prci_vtable>:
__metal_driver_sifive_fe310_g000_prci_vtable():
/home/letsgrillbananas/wsFreedomStudio/embedded-software/bsp/build/debug/./metal/machine.h:1374
{
20013382:	1141                	addi	sp,sp,-16
20013384:	c622                	sw	s0,12(sp)
20013386:	0800                	addi	s0,sp,16
/home/letsgrillbananas/wsFreedomStudio/embedded-software/bsp/build/debug/./metal/machine.h:1375
		return &__metal_driver_vtable_sifive_fe310_g000_prci;
20013388:	82c18793          	addi	a5,gp,-2004 # 800004b4 <__metal_driver_vtable_sifive_fe310_g000_prci>
/home/letsgrillbananas/wsFreedomStudio/embedded-software/bsp/build/debug/./metal/machine.h:1376
}
2001338c:	853e                	mv	a0,a5
2001338e:	4432                	lw	s0,12(sp)
20013390:	0141                	addi	sp,sp,16
20013392:	8082                	ret

20013394 <__metal_driver_sifive_fe310_g000_hfxosc_get_rate_hz>:
__metal_driver_sifive_fe310_g000_hfxosc_get_rate_hz():
/home/letsgrillbananas/wsFreedomStudio/embedded-software/freedom-metal/src/drivers/sifive_fe310-g000_hfxosc.c:15

#define CONFIG_ENABLE 0x40000000UL
#define CONFIG_READY 0x80000000UL

long __metal_driver_sifive_fe310_g000_hfxosc_get_rate_hz(
    const struct metal_clock *clock) {
20013394:	7139                	addi	sp,sp,-64
20013396:	de06                	sw	ra,60(sp)
20013398:	dc22                	sw	s0,56(sp)
2001339a:	0080                	addi	s0,sp,64
2001339c:	fca42623          	sw	a0,-52(s0)
/home/letsgrillbananas/wsFreedomStudio/embedded-software/freedom-metal/src/drivers/sifive_fe310-g000_hfxosc.c:17
    struct metal_clock *ref =
        __metal_driver_sifive_fe310_g000_hfxosc_ref(clock);
200133a0:	fcc42503          	lw	a0,-52(s0)
200133a4:	3f69                	jal	2001333e <__metal_driver_sifive_fe310_g000_hfxosc_ref>
200133a6:	fea42623          	sw	a0,-20(s0)
/home/letsgrillbananas/wsFreedomStudio/embedded-software/freedom-metal/src/drivers/sifive_fe310-g000_hfxosc.c:19
    long config_offset =
        __metal_driver_sifive_fe310_g000_hfxosc_config_offset(clock);
200133aa:	fcc42503          	lw	a0,-52(s0)
200133ae:	37c1                	jal	2001336e <__metal_driver_sifive_fe310_g000_hfxosc_config_offset>
200133b0:	fea42423          	sw	a0,-24(s0)
/home/letsgrillbananas/wsFreedomStudio/embedded-software/freedom-metal/src/drivers/sifive_fe310-g000_hfxosc.c:21
    struct __metal_driver_sifive_fe310_g000_prci *config_base =
        __metal_driver_sifive_fe310_g000_hfxosc_config_base(clock);
200133b4:	fcc42503          	lw	a0,-52(s0)
200133b8:	3745                	jal	20013358 <__metal_driver_sifive_fe310_g000_hfxosc_config_base>
200133ba:	fea42223          	sw	a0,-28(s0)
/home/letsgrillbananas/wsFreedomStudio/embedded-software/freedom-metal/src/drivers/sifive_fe310-g000_hfxosc.c:23
    const struct __metal_driver_vtable_sifive_fe310_g000_prci *vtable =
        __metal_driver_sifive_fe310_g000_prci_vtable();
200133be:	37d1                	jal	20013382 <__metal_driver_sifive_fe310_g000_prci_vtable>
200133c0:	fea42023          	sw	a0,-32(s0)
/home/letsgrillbananas/wsFreedomStudio/embedded-software/freedom-metal/src/drivers/sifive_fe310-g000_hfxosc.c:24
    long cfg = vtable->get_reg(config_base, config_offset);
200133c4:	fe042783          	lw	a5,-32(s0)
200133c8:	439c                	lw	a5,0(a5)
200133ca:	fe842583          	lw	a1,-24(s0)
200133ce:	fe442503          	lw	a0,-28(s0)
200133d2:	9782                	jalr	a5
200133d4:	fca42e23          	sw	a0,-36(s0)
/home/letsgrillbananas/wsFreedomStudio/embedded-software/freedom-metal/src/drivers/sifive_fe310-g000_hfxosc.c:26

    if ((cfg & CONFIG_ENABLE) == 0)
200133d8:	fdc42703          	lw	a4,-36(s0)
200133dc:	400007b7          	lui	a5,0x40000
200133e0:	8ff9                	and	a5,a5,a4
200133e2:	e399                	bnez	a5,200133e8 <__metal_driver_sifive_fe310_g000_hfxosc_get_rate_hz+0x54>
/home/letsgrillbananas/wsFreedomStudio/embedded-software/freedom-metal/src/drivers/sifive_fe310-g000_hfxosc.c:27
        return -1;
200133e4:	57fd                	li	a5,-1
200133e6:	a821                	j	200133fe <__metal_driver_sifive_fe310_g000_hfxosc_get_rate_hz+0x6a>
/home/letsgrillbananas/wsFreedomStudio/embedded-software/freedom-metal/src/drivers/sifive_fe310-g000_hfxosc.c:28
    if ((cfg & CONFIG_READY) == 0)
200133e8:	fdc42783          	lw	a5,-36(s0)
200133ec:	0007c463          	bltz	a5,200133f4 <__metal_driver_sifive_fe310_g000_hfxosc_get_rate_hz+0x60>
/home/letsgrillbananas/wsFreedomStudio/embedded-software/freedom-metal/src/drivers/sifive_fe310-g000_hfxosc.c:29
        return -1;
200133f0:	57fd                	li	a5,-1
200133f2:	a031                	j	200133fe <__metal_driver_sifive_fe310_g000_hfxosc_get_rate_hz+0x6a>
/home/letsgrillbananas/wsFreedomStudio/embedded-software/freedom-metal/src/drivers/sifive_fe310-g000_hfxosc.c:30
    return metal_clock_get_rate_hz(ref);
200133f4:	fec42503          	lw	a0,-20(s0)
200133f8:	7ae000ef          	jal	ra,20013ba6 <metal_clock_get_rate_hz>
200133fc:	87aa                	mv	a5,a0
/home/letsgrillbananas/wsFreedomStudio/embedded-software/freedom-metal/src/drivers/sifive_fe310-g000_hfxosc.c:31
}
200133fe:	853e                	mv	a0,a5
20013400:	50f2                	lw	ra,60(sp)
20013402:	5462                	lw	s0,56(sp)
20013404:	6121                	addi	sp,sp,64
20013406:	8082                	ret

20013408 <__metal_driver_sifive_fe310_g000_hfxosc_set_rate_hz>:
__metal_driver_sifive_fe310_g000_hfxosc_set_rate_hz():
/home/letsgrillbananas/wsFreedomStudio/embedded-software/freedom-metal/src/drivers/sifive_fe310-g000_hfxosc.c:34

long __metal_driver_sifive_fe310_g000_hfxosc_set_rate_hz(
    struct metal_clock *clock, long rate) {
20013408:	1101                	addi	sp,sp,-32
2001340a:	ce06                	sw	ra,28(sp)
2001340c:	cc22                	sw	s0,24(sp)
2001340e:	1000                	addi	s0,sp,32
20013410:	fea42623          	sw	a0,-20(s0)
20013414:	feb42423          	sw	a1,-24(s0)
/home/letsgrillbananas/wsFreedomStudio/embedded-software/freedom-metal/src/drivers/sifive_fe310-g000_hfxosc.c:35
    return __metal_driver_sifive_fe310_g000_hfxosc_get_rate_hz(clock);
20013418:	fec42503          	lw	a0,-20(s0)
2001341c:	3fa5                	jal	20013394 <__metal_driver_sifive_fe310_g000_hfxosc_get_rate_hz>
2001341e:	87aa                	mv	a5,a0
/home/letsgrillbananas/wsFreedomStudio/embedded-software/freedom-metal/src/drivers/sifive_fe310-g000_hfxosc.c:36
}
20013420:	853e                	mv	a0,a5
20013422:	40f2                	lw	ra,28(sp)
20013424:	4462                	lw	s0,24(sp)
20013426:	6105                	addi	sp,sp,32
20013428:	8082                	ret

2001342a <__metal_driver_sifive_fe310_g000_pll_pllsel0>:
__metal_driver_sifive_fe310_g000_pll_pllsel0():
/home/letsgrillbananas/wsFreedomStudio/embedded-software/bsp/build/debug/./metal/machine.h:1326
{
2001342a:	1101                	addi	sp,sp,-32
2001342c:	ce22                	sw	s0,28(sp)
2001342e:	1000                	addi	s0,sp,32
20013430:	fea42623          	sw	a0,-20(s0)
/home/letsgrillbananas/wsFreedomStudio/embedded-software/bsp/build/debug/./metal/machine.h:1327
		return (struct metal_clock *)&__metal_dt_clock_3.clock;
20013434:	800007b7          	lui	a5,0x80000
20013438:	46078793          	addi	a5,a5,1120 # 80000460 <__global_pointer$+0xfffff7d8>
/home/letsgrillbananas/wsFreedomStudio/embedded-software/bsp/build/debug/./metal/machine.h:1328
}
2001343c:	853e                	mv	a0,a5
2001343e:	4472                	lw	s0,28(sp)
20013440:	6105                	addi	sp,sp,32
20013442:	8082                	ret

20013444 <__metal_driver_sifive_fe310_g000_pll_pllref>:
__metal_driver_sifive_fe310_g000_pll_pllref():
/home/letsgrillbananas/wsFreedomStudio/embedded-software/bsp/build/debug/./metal/machine.h:1331
{
20013444:	1101                	addi	sp,sp,-32
20013446:	ce22                	sw	s0,28(sp)
20013448:	1000                	addi	s0,sp,32
2001344a:	fea42623          	sw	a0,-20(s0)
/home/letsgrillbananas/wsFreedomStudio/embedded-software/bsp/build/debug/./metal/machine.h:1332
		return (struct metal_clock *)&__metal_dt_clock_1.clock;
2001344e:	800007b7          	lui	a5,0x80000
20013452:	46c78793          	addi	a5,a5,1132 # 8000046c <__global_pointer$+0xfffff7e4>
/home/letsgrillbananas/wsFreedomStudio/embedded-software/bsp/build/debug/./metal/machine.h:1333
}
20013456:	853e                	mv	a0,a5
20013458:	4472                	lw	s0,28(sp)
2001345a:	6105                	addi	sp,sp,32
2001345c:	8082                	ret

2001345e <__metal_driver_sifive_fe310_g000_pll_divider_base>:
__metal_driver_sifive_fe310_g000_pll_divider_base():
/home/letsgrillbananas/wsFreedomStudio/embedded-software/bsp/build/debug/./metal/machine.h:1336
{
2001345e:	1101                	addi	sp,sp,-32
20013460:	ce22                	sw	s0,28(sp)
20013462:	1000                	addi	s0,sp,32
20013464:	fea42623          	sw	a0,-20(s0)
/home/letsgrillbananas/wsFreedomStudio/embedded-software/bsp/build/debug/./metal/machine.h:1337
		return (struct __metal_driver_sifive_fe310_g000_prci *)&__metal_dt_prci_10008000;
20013468:	81818793          	addi	a5,gp,-2024 # 800004a0 <__metal_dt_prci_10008000>
/home/letsgrillbananas/wsFreedomStudio/embedded-software/bsp/build/debug/./metal/machine.h:1338
}
2001346c:	853e                	mv	a0,a5
2001346e:	4472                	lw	s0,28(sp)
20013470:	6105                	addi	sp,sp,32
20013472:	8082                	ret

20013474 <__metal_driver_sifive_fe310_g000_pll_divider_offset>:
__metal_driver_sifive_fe310_g000_pll_divider_offset():
/home/letsgrillbananas/wsFreedomStudio/embedded-software/bsp/build/debug/./metal/machine.h:1341
{
20013474:	1101                	addi	sp,sp,-32
20013476:	ce22                	sw	s0,28(sp)
20013478:	1000                	addi	s0,sp,32
2001347a:	fea42623          	sw	a0,-20(s0)
/home/letsgrillbananas/wsFreedomStudio/embedded-software/bsp/build/debug/./metal/machine.h:1342
		return METAL_SIFIVE_FE310_G000_PRCI_PLLOUTDIV;
2001347e:	47b1                	li	a5,12
/home/letsgrillbananas/wsFreedomStudio/embedded-software/bsp/build/debug/./metal/machine.h:1343
}
20013480:	853e                	mv	a0,a5
20013482:	4472                	lw	s0,28(sp)
20013484:	6105                	addi	sp,sp,32
20013486:	8082                	ret

20013488 <__metal_driver_sifive_fe310_g000_pll_config_base>:
__metal_driver_sifive_fe310_g000_pll_config_base():
/home/letsgrillbananas/wsFreedomStudio/embedded-software/bsp/build/debug/./metal/machine.h:1346
{
20013488:	1141                	addi	sp,sp,-16
2001348a:	c622                	sw	s0,12(sp)
2001348c:	0800                	addi	s0,sp,16
/home/letsgrillbananas/wsFreedomStudio/embedded-software/bsp/build/debug/./metal/machine.h:1347
		return (struct __metal_driver_sifive_fe310_g000_prci *)&__metal_dt_prci_10008000;
2001348e:	81818793          	addi	a5,gp,-2024 # 800004a0 <__metal_dt_prci_10008000>
/home/letsgrillbananas/wsFreedomStudio/embedded-software/bsp/build/debug/./metal/machine.h:1348
}
20013492:	853e                	mv	a0,a5
20013494:	4432                	lw	s0,12(sp)
20013496:	0141                	addi	sp,sp,16
20013498:	8082                	ret

2001349a <__metal_driver_sifive_fe310_g000_pll_config_offset>:
__metal_driver_sifive_fe310_g000_pll_config_offset():
/home/letsgrillbananas/wsFreedomStudio/embedded-software/bsp/build/debug/./metal/machine.h:1351
{
2001349a:	1141                	addi	sp,sp,-16
2001349c:	c622                	sw	s0,12(sp)
2001349e:	0800                	addi	s0,sp,16
/home/letsgrillbananas/wsFreedomStudio/embedded-software/bsp/build/debug/./metal/machine.h:1352
		return METAL_SIFIVE_FE310_G000_PRCI_PLLCFG;
200134a0:	47a1                	li	a5,8
/home/letsgrillbananas/wsFreedomStudio/embedded-software/bsp/build/debug/./metal/machine.h:1353
}
200134a2:	853e                	mv	a0,a5
200134a4:	4432                	lw	s0,12(sp)
200134a6:	0141                	addi	sp,sp,16
200134a8:	8082                	ret

200134aa <__metal_driver_sifive_fe310_g000_pll_init_rate>:
__metal_driver_sifive_fe310_g000_pll_init_rate():
/home/letsgrillbananas/wsFreedomStudio/embedded-software/bsp/build/debug/./metal/machine.h:1356
{
200134aa:	1141                	addi	sp,sp,-16
200134ac:	c622                	sw	s0,12(sp)
200134ae:	0800                	addi	s0,sp,16
/home/letsgrillbananas/wsFreedomStudio/embedded-software/bsp/build/debug/./metal/machine.h:1357
		return 16000000;
200134b0:	00f427b7          	lui	a5,0xf42
200134b4:	40078793          	addi	a5,a5,1024 # f42400 <__heap_size+0xf41c00>
/home/letsgrillbananas/wsFreedomStudio/embedded-software/bsp/build/debug/./metal/machine.h:1358
}
200134b8:	853e                	mv	a0,a5
200134ba:	4432                	lw	s0,12(sp)
200134bc:	0141                	addi	sp,sp,16
200134be:	8082                	ret

200134c0 <__metal_driver_sifive_fe310_g000_prci_base>:
__metal_driver_sifive_fe310_g000_prci_base():
/home/letsgrillbananas/wsFreedomStudio/embedded-software/bsp/build/debug/./metal/machine.h:1364
{
200134c0:	1141                	addi	sp,sp,-16
200134c2:	c622                	sw	s0,12(sp)
200134c4:	0800                	addi	s0,sp,16
/home/letsgrillbananas/wsFreedomStudio/embedded-software/bsp/build/debug/./metal/machine.h:1365
		return METAL_SIFIVE_FE310_G000_PRCI_10008000_BASE_ADDRESS;
200134c6:	100087b7          	lui	a5,0x10008
/home/letsgrillbananas/wsFreedomStudio/embedded-software/bsp/build/debug/./metal/machine.h:1366
}
200134ca:	853e                	mv	a0,a5
200134cc:	4432                	lw	s0,12(sp)
200134ce:	0141                	addi	sp,sp,16
200134d0:	8082                	ret

200134d2 <__metal_driver_sifive_fe310_g000_prci_vtable>:
__metal_driver_sifive_fe310_g000_prci_vtable():
/home/letsgrillbananas/wsFreedomStudio/embedded-software/bsp/build/debug/./metal/machine.h:1374
{
200134d2:	1141                	addi	sp,sp,-16
200134d4:	c622                	sw	s0,12(sp)
200134d6:	0800                	addi	s0,sp,16
/home/letsgrillbananas/wsFreedomStudio/embedded-software/bsp/build/debug/./metal/machine.h:1375
		return &__metal_driver_vtable_sifive_fe310_g000_prci;
200134d8:	82c18793          	addi	a5,gp,-2004 # 800004b4 <__metal_driver_vtable_sifive_fe310_g000_prci>
/home/letsgrillbananas/wsFreedomStudio/embedded-software/bsp/build/debug/./metal/machine.h:1376
}
200134dc:	853e                	mv	a0,a5
200134de:	4432                	lw	s0,12(sp)
200134e0:	0141                	addi	sp,sp,16
200134e2:	8082                	ret

200134e4 <get_pll_config_freq>:
get_pll_config_freq():
/home/letsgrillbananas/wsFreedomStudio/embedded-software/freedom-metal/src/drivers/sifive_fe310-g000_pll.c:141
                                const struct pll_config_t *config) {
200134e4:	1101                	addi	sp,sp,-32
200134e6:	ce22                	sw	s0,28(sp)
200134e8:	1000                	addi	s0,sp,32
200134ea:	fea42623          	sw	a0,-20(s0)
200134ee:	feb42423          	sw	a1,-24(s0)
/home/letsgrillbananas/wsFreedomStudio/embedded-software/freedom-metal/src/drivers/sifive_fe310-g000_pll.c:142
    if (pll_input_rate < config->min_input_rate ||
200134f2:	fe842783          	lw	a5,-24(s0)
200134f6:	479c                	lw	a5,8(a5)
200134f8:	fec42703          	lw	a4,-20(s0)
200134fc:	00f76963          	bltu	a4,a5,2001350e <get_pll_config_freq+0x2a>
/home/letsgrillbananas/wsFreedomStudio/embedded-software/freedom-metal/src/drivers/sifive_fe310-g000_pll.c:143 (discriminator 1)
        pll_input_rate > config->max_input_rate)
20013500:	fe842783          	lw	a5,-24(s0)
20013504:	47dc                	lw	a5,12(a5)
/home/letsgrillbananas/wsFreedomStudio/embedded-software/freedom-metal/src/drivers/sifive_fe310-g000_pll.c:142 (discriminator 1)
    if (pll_input_rate < config->min_input_rate ||
20013506:	fec42703          	lw	a4,-20(s0)
2001350a:	00e7f463          	bgeu	a5,a4,20013512 <get_pll_config_freq+0x2e>
/home/letsgrillbananas/wsFreedomStudio/embedded-software/freedom-metal/src/drivers/sifive_fe310-g000_pll.c:144
        return PLL_CONFIG_NOT_VALID;
2001350e:	57fd                	li	a5,-1
20013510:	a829                	j	2001352a <get_pll_config_freq+0x46>
/home/letsgrillbananas/wsFreedomStudio/embedded-software/freedom-metal/src/drivers/sifive_fe310-g000_pll.c:146
    return pll_input_rate * config->multiplier / config->divisor;
20013512:	fe842783          	lw	a5,-24(s0)
20013516:	4398                	lw	a4,0(a5)
20013518:	fec42783          	lw	a5,-20(s0)
2001351c:	02f70733          	mul	a4,a4,a5
20013520:	fe842783          	lw	a5,-24(s0)
20013524:	43dc                	lw	a5,4(a5)
20013526:	02f757b3          	divu	a5,a4,a5
/home/letsgrillbananas/wsFreedomStudio/embedded-software/freedom-metal/src/drivers/sifive_fe310-g000_pll.c:147
}
2001352a:	853e                	mv	a0,a5
2001352c:	4472                	lw	s0,28(sp)
2001352e:	6105                	addi	sp,sp,32
20013530:	8082                	ret

20013532 <__metal_driver_sifive_fe310_g000_pll_init>:
__metal_driver_sifive_fe310_g000_pll_init():
/home/letsgrillbananas/wsFreedomStudio/embedded-software/freedom-metal/src/drivers/sifive_fe310-g000_pll.c:162
    struct __metal_driver_sifive_fe310_g000_pll *pll) {
20013532:	7139                	addi	sp,sp,-64
20013534:	de06                	sw	ra,60(sp)
20013536:	dc22                	sw	s0,56(sp)
20013538:	0080                	addi	s0,sp,64
2001353a:	fca42623          	sw	a0,-52(s0)
/home/letsgrillbananas/wsFreedomStudio/embedded-software/freedom-metal/src/drivers/sifive_fe310-g000_pll.c:164
        __metal_driver_sifive_fe310_g000_pll_pllref(&(pll->clock));
2001353e:	fcc42783          	lw	a5,-52(s0)
20013542:	853e                	mv	a0,a5
20013544:	3701                	jal	20013444 <__metal_driver_sifive_fe310_g000_pll_pllref>
20013546:	fea42623          	sw	a0,-20(s0)
/home/letsgrillbananas/wsFreedomStudio/embedded-software/freedom-metal/src/drivers/sifive_fe310-g000_pll.c:165
    long init_rate = __metal_driver_sifive_fe310_g000_pll_init_rate();
2001354a:	3785                	jal	200134aa <__metal_driver_sifive_fe310_g000_pll_init_rate>
2001354c:	fea42423          	sw	a0,-24(s0)
/home/letsgrillbananas/wsFreedomStudio/embedded-software/freedom-metal/src/drivers/sifive_fe310-g000_pll.c:166
    long config_offset = __metal_driver_sifive_fe310_g000_pll_config_offset();
20013550:	37a9                	jal	2001349a <__metal_driver_sifive_fe310_g000_pll_config_offset>
20013552:	fea42223          	sw	a0,-28(s0)
/home/letsgrillbananas/wsFreedomStudio/embedded-software/freedom-metal/src/drivers/sifive_fe310-g000_pll.c:167
    long base = __metal_driver_sifive_fe310_g000_prci_base();
20013556:	37ad                	jal	200134c0 <__metal_driver_sifive_fe310_g000_prci_base>
20013558:	fea42023          	sw	a0,-32(s0)
/home/letsgrillbananas/wsFreedomStudio/embedded-software/freedom-metal/src/drivers/sifive_fe310-g000_pll.c:169
    __metal_io_u32 *pllcfg = (__metal_io_u32 *)(base + config_offset);
2001355c:	fe042703          	lw	a4,-32(s0)
20013560:	fe442783          	lw	a5,-28(s0)
20013564:	97ba                	add	a5,a5,a4
20013566:	fcf42e23          	sw	a5,-36(s0)
/home/letsgrillbananas/wsFreedomStudio/embedded-software/freedom-metal/src/drivers/sifive_fe310-g000_pll.c:173
    _metal_clock_call_all_callbacks(pll->clock._pre_rate_change_callback);
2001356a:	fcc42783          	lw	a5,-52(s0)
2001356e:	43dc                	lw	a5,4(a5)
20013570:	853e                	mv	a0,a5
20013572:	2bd5                	jal	20013b66 <_metal_clock_call_all_callbacks>
/home/letsgrillbananas/wsFreedomStudio/embedded-software/freedom-metal/src/drivers/sifive_fe310-g000_pll.c:177
    if ((__METAL_ACCESS_ONCE(pllcfg) & PLL_SEL) != 0)
20013574:	fdc42783          	lw	a5,-36(s0)
20013578:	4398                	lw	a4,0(a5)
2001357a:	67c1                	lui	a5,0x10
2001357c:	8ff9                	and	a5,a5,a4
2001357e:	cb91                	beqz	a5,20013592 <__metal_driver_sifive_fe310_g000_pll_init+0x60>
/home/letsgrillbananas/wsFreedomStudio/embedded-software/freedom-metal/src/drivers/sifive_fe310-g000_pll.c:178
        __METAL_ACCESS_ONCE(pllcfg) &= ~(PLL_SEL);
20013580:	fdc42783          	lw	a5,-36(s0)
20013584:	4398                	lw	a4,0(a5)
20013586:	77c1                	lui	a5,0xffff0
20013588:	17fd                	addi	a5,a5,-1
2001358a:	8f7d                	and	a4,a4,a5
2001358c:	fdc42783          	lw	a5,-36(s0)
20013590:	c398                	sw	a4,0(a5)
/home/letsgrillbananas/wsFreedomStudio/embedded-software/freedom-metal/src/drivers/sifive_fe310-g000_pll.c:181
    if (pllref != NULL)
20013592:	fec42783          	lw	a5,-20(s0)
20013596:	cb91                	beqz	a5,200135aa <__metal_driver_sifive_fe310_g000_pll_init+0x78>
/home/letsgrillbananas/wsFreedomStudio/embedded-software/freedom-metal/src/drivers/sifive_fe310-g000_pll.c:182
        __METAL_ACCESS_ONCE(pllcfg) |= PLL_REFSEL;
20013598:	fdc42783          	lw	a5,-36(s0)
2001359c:	4398                	lw	a4,0(a5)
2001359e:	000207b7          	lui	a5,0x20
200135a2:	8f5d                	or	a4,a4,a5
200135a4:	fdc42783          	lw	a5,-36(s0)
200135a8:	c398                	sw	a4,0(a5)
/home/letsgrillbananas/wsFreedomStudio/embedded-software/freedom-metal/src/drivers/sifive_fe310-g000_pll.c:187
    pll->clock.vtable->set_rate_hz(&(pll->clock), init_rate);
200135aa:	fcc42783          	lw	a5,-52(s0)
200135ae:	439c                	lw	a5,0(a5)
200135b0:	43d8                	lw	a4,4(a5)
200135b2:	fcc42783          	lw	a5,-52(s0)
200135b6:	fe842583          	lw	a1,-24(s0)
200135ba:	853e                	mv	a0,a5
200135bc:	9702                	jalr	a4
/home/letsgrillbananas/wsFreedomStudio/embedded-software/freedom-metal/src/drivers/sifive_fe310-g000_pll.c:190
    _metal_clock_call_all_callbacks(pll->clock._post_rate_change_callback);
200135be:	fcc42783          	lw	a5,-52(s0)
200135c2:	479c                	lw	a5,8(a5)
200135c4:	853e                	mv	a0,a5
200135c6:	2345                	jal	20013b66 <_metal_clock_call_all_callbacks>
/home/letsgrillbananas/wsFreedomStudio/embedded-software/freedom-metal/src/drivers/sifive_fe310-g000_pll.c:191
}
200135c8:	0001                	nop
200135ca:	50f2                	lw	ra,60(sp)
200135cc:	5462                	lw	s0,56(sp)
200135ce:	6121                	addi	sp,sp,64
200135d0:	8082                	ret

200135d2 <__metal_driver_sifive_fe310_g000_pll_get_rate_hz>:
__metal_driver_sifive_fe310_g000_pll_get_rate_hz():
/home/letsgrillbananas/wsFreedomStudio/embedded-software/freedom-metal/src/drivers/sifive_fe310-g000_pll.c:194
    const struct metal_clock *clock) {
200135d2:	711d                	addi	sp,sp,-96
200135d4:	ce86                	sw	ra,92(sp)
200135d6:	cca2                	sw	s0,88(sp)
200135d8:	1080                	addi	s0,sp,96
200135da:	faa42623          	sw	a0,-84(s0)
/home/letsgrillbananas/wsFreedomStudio/embedded-software/freedom-metal/src/drivers/sifive_fe310-g000_pll.c:196
        __metal_driver_sifive_fe310_g000_pll_pllref(clock);
200135de:	fac42503          	lw	a0,-84(s0)
200135e2:	358d                	jal	20013444 <__metal_driver_sifive_fe310_g000_pll_pllref>
200135e4:	fea42623          	sw	a0,-20(s0)
/home/letsgrillbananas/wsFreedomStudio/embedded-software/freedom-metal/src/drivers/sifive_fe310-g000_pll.c:198
        __metal_driver_sifive_fe310_g000_pll_pllsel0(clock);
200135e8:	fac42503          	lw	a0,-84(s0)
200135ec:	3d3d                	jal	2001342a <__metal_driver_sifive_fe310_g000_pll_pllsel0>
200135ee:	fea42423          	sw	a0,-24(s0)
/home/letsgrillbananas/wsFreedomStudio/embedded-software/freedom-metal/src/drivers/sifive_fe310-g000_pll.c:200
        __metal_driver_sifive_fe310_g000_pll_config_offset(clock);
200135f2:	fac42503          	lw	a0,-84(s0)
200135f6:	3555                	jal	2001349a <__metal_driver_sifive_fe310_g000_pll_config_offset>
200135f8:	fea42223          	sw	a0,-28(s0)
/home/letsgrillbananas/wsFreedomStudio/embedded-software/freedom-metal/src/drivers/sifive_fe310-g000_pll.c:202
        __metal_driver_sifive_fe310_g000_pll_config_base(clock);
200135fc:	fac42503          	lw	a0,-84(s0)
20013600:	3561                	jal	20013488 <__metal_driver_sifive_fe310_g000_pll_config_base>
20013602:	fea42023          	sw	a0,-32(s0)
/home/letsgrillbananas/wsFreedomStudio/embedded-software/freedom-metal/src/drivers/sifive_fe310-g000_pll.c:204
        __metal_driver_sifive_fe310_g000_pll_divider_offset(clock);
20013606:	fac42503          	lw	a0,-84(s0)
2001360a:	35ad                	jal	20013474 <__metal_driver_sifive_fe310_g000_pll_divider_offset>
2001360c:	fca42e23          	sw	a0,-36(s0)
/home/letsgrillbananas/wsFreedomStudio/embedded-software/freedom-metal/src/drivers/sifive_fe310-g000_pll.c:206
        __metal_driver_sifive_fe310_g000_pll_divider_base(clock);
20013610:	fac42503          	lw	a0,-84(s0)
20013614:	35a9                	jal	2001345e <__metal_driver_sifive_fe310_g000_pll_divider_base>
20013616:	fca42c23          	sw	a0,-40(s0)
/home/letsgrillbananas/wsFreedomStudio/embedded-software/freedom-metal/src/drivers/sifive_fe310-g000_pll.c:208
        __metal_driver_sifive_fe310_g000_prci_vtable();
2001361a:	3d65                	jal	200134d2 <__metal_driver_sifive_fe310_g000_prci_vtable>
2001361c:	fca42a23          	sw	a0,-44(s0)
/home/letsgrillbananas/wsFreedomStudio/embedded-software/freedom-metal/src/drivers/sifive_fe310-g000_pll.c:210
    long cfg = vtable->get_reg(config_base, config_offset);
20013620:	fd442783          	lw	a5,-44(s0)
20013624:	439c                	lw	a5,0(a5)
20013626:	fe442583          	lw	a1,-28(s0)
2001362a:	fe042503          	lw	a0,-32(s0)
2001362e:	9782                	jalr	a5
20013630:	fca42823          	sw	a0,-48(s0)
/home/letsgrillbananas/wsFreedomStudio/embedded-software/freedom-metal/src/drivers/sifive_fe310-g000_pll.c:211
    long div = vtable->get_reg(divider_base, divider_offset);
20013634:	fd442783          	lw	a5,-44(s0)
20013638:	439c                	lw	a5,0(a5)
2001363a:	fdc42583          	lw	a1,-36(s0)
2001363e:	fd842503          	lw	a0,-40(s0)
20013642:	9782                	jalr	a5
20013644:	fca42623          	sw	a0,-52(s0)
/home/letsgrillbananas/wsFreedomStudio/embedded-software/freedom-metal/src/drivers/sifive_fe310-g000_pll.c:215
    if (__METAL_GET_FIELD(cfg, PLL_SEL) == 0)
20013648:	fd042703          	lw	a4,-48(s0)
2001364c:	67c1                	lui	a5,0x10
2001364e:	8f7d                	and	a4,a4,a5
20013650:	67c1                	lui	a5,0x10
20013652:	00f77763          	bgeu	a4,a5,20013660 <__metal_driver_sifive_fe310_g000_pll_get_rate_hz+0x8e>
/home/letsgrillbananas/wsFreedomStudio/embedded-software/freedom-metal/src/drivers/sifive_fe310-g000_pll.c:216
        return metal_clock_get_rate_hz(pllsel0);
20013656:	fe842503          	lw	a0,-24(s0)
2001365a:	23b1                	jal	20013ba6 <metal_clock_get_rate_hz>
2001365c:	87aa                	mv	a5,a0
2001365e:	a8d9                	j	20013734 <__metal_driver_sifive_fe310_g000_pll_get_rate_hz+0x162>
/home/letsgrillbananas/wsFreedomStudio/embedded-software/freedom-metal/src/drivers/sifive_fe310-g000_pll.c:221
        __METAL_GET_FIELD(cfg, PLL_REFSEL) ? pllref : pllsel0);
20013660:	fd042703          	lw	a4,-48(s0)
20013664:	000207b7          	lui	a5,0x20
20013668:	8f7d                	and	a4,a4,a5
/home/letsgrillbananas/wsFreedomStudio/embedded-software/freedom-metal/src/drivers/sifive_fe310-g000_pll.c:220
    long ref_hz = metal_clock_get_rate_hz(
2001366a:	000207b7          	lui	a5,0x20
2001366e:	00f76563          	bltu	a4,a5,20013678 <__metal_driver_sifive_fe310_g000_pll_get_rate_hz+0xa6>
/home/letsgrillbananas/wsFreedomStudio/embedded-software/freedom-metal/src/drivers/sifive_fe310-g000_pll.c:220 (discriminator 1)
20013672:	fec42783          	lw	a5,-20(s0)
20013676:	a019                	j	2001367c <__metal_driver_sifive_fe310_g000_pll_get_rate_hz+0xaa>
/home/letsgrillbananas/wsFreedomStudio/embedded-software/freedom-metal/src/drivers/sifive_fe310-g000_pll.c:220 (discriminator 2)
20013678:	fe842783          	lw	a5,-24(s0)
/home/letsgrillbananas/wsFreedomStudio/embedded-software/freedom-metal/src/drivers/sifive_fe310-g000_pll.c:220 (discriminator 4)
2001367c:	853e                	mv	a0,a5
2001367e:	2325                	jal	20013ba6 <metal_clock_get_rate_hz>
20013680:	fca42423          	sw	a0,-56(s0)
/home/letsgrillbananas/wsFreedomStudio/embedded-software/freedom-metal/src/drivers/sifive_fe310-g000_pll.c:225 (discriminator 4)
    if (__METAL_GET_FIELD(cfg, PLL_BYPASS))
20013684:	fd042703          	lw	a4,-48(s0)
20013688:	000407b7          	lui	a5,0x40
2001368c:	8f7d                	and	a4,a4,a5
2001368e:	000407b7          	lui	a5,0x40
20013692:	00f76563          	bltu	a4,a5,2001369c <__metal_driver_sifive_fe310_g000_pll_get_rate_hz+0xca>
/home/letsgrillbananas/wsFreedomStudio/embedded-software/freedom-metal/src/drivers/sifive_fe310-g000_pll.c:226
        return ref_hz;
20013696:	fc842783          	lw	a5,-56(s0)
2001369a:	a869                	j	20013734 <__metal_driver_sifive_fe310_g000_pll_get_rate_hz+0x162>
/home/letsgrillbananas/wsFreedomStudio/embedded-software/freedom-metal/src/drivers/sifive_fe310-g000_pll.c:229
    long div_r = __METAL_GET_FIELD(cfg, PLL_R) + 1;
2001369c:	fd042783          	lw	a5,-48(s0)
200136a0:	8b9d                	andi	a5,a5,7
200136a2:	0785                	addi	a5,a5,1
200136a4:	fcf42223          	sw	a5,-60(s0)
/home/letsgrillbananas/wsFreedomStudio/embedded-software/freedom-metal/src/drivers/sifive_fe310-g000_pll.c:230
    long mul_f = 2 * (__METAL_GET_FIELD(cfg, PLL_F) + 1);
200136a8:	fd042783          	lw	a5,-48(s0)
200136ac:	3f07f793          	andi	a5,a5,1008
200136b0:	8391                	srli	a5,a5,0x4
200136b2:	0785                	addi	a5,a5,1
200136b4:	0786                	slli	a5,a5,0x1
200136b6:	fcf42023          	sw	a5,-64(s0)
/home/letsgrillbananas/wsFreedomStudio/embedded-software/freedom-metal/src/drivers/sifive_fe310-g000_pll.c:231
    if (__METAL_GET_FIELD(cfg, PLL_Q) == 0)
200136ba:	fd042703          	lw	a4,-48(s0)
200136be:	6785                	lui	a5,0x1
200136c0:	c0078793          	addi	a5,a5,-1024 # c00 <__heap_size+0x400>
200136c4:	8f7d                	and	a4,a4,a5
200136c6:	3ff00793          	li	a5,1023
200136ca:	00e7e463          	bltu	a5,a4,200136d2 <__metal_driver_sifive_fe310_g000_pll_get_rate_hz+0x100>
/home/letsgrillbananas/wsFreedomStudio/embedded-software/freedom-metal/src/drivers/sifive_fe310-g000_pll.c:232
        return -1;
200136ce:	57fd                	li	a5,-1
200136d0:	a095                	j	20013734 <__metal_driver_sifive_fe310_g000_pll_get_rate_hz+0x162>
/home/letsgrillbananas/wsFreedomStudio/embedded-software/freedom-metal/src/drivers/sifive_fe310-g000_pll.c:233
    long div_q = 1 << __METAL_GET_FIELD(cfg, PLL_Q);
200136d2:	fd042703          	lw	a4,-48(s0)
200136d6:	6785                	lui	a5,0x1
200136d8:	c0078793          	addi	a5,a5,-1024 # c00 <__heap_size+0x400>
200136dc:	8ff9                	and	a5,a5,a4
200136de:	83a9                	srli	a5,a5,0xa
200136e0:	4705                	li	a4,1
200136e2:	00f717b3          	sll	a5,a4,a5
200136e6:	faf42e23          	sw	a5,-68(s0)
/home/letsgrillbananas/wsFreedomStudio/embedded-software/freedom-metal/src/drivers/sifive_fe310-g000_pll.c:238
    long pllout = (((ref_hz / div_r) * mul_f) / div_q);
200136ea:	fc842703          	lw	a4,-56(s0)
200136ee:	fc442783          	lw	a5,-60(s0)
200136f2:	02f74733          	div	a4,a4,a5
200136f6:	fc042783          	lw	a5,-64(s0)
200136fa:	02f70733          	mul	a4,a4,a5
200136fe:	fbc42783          	lw	a5,-68(s0)
20013702:	02f747b3          	div	a5,a4,a5
20013706:	faf42c23          	sw	a5,-72(s0)
/home/letsgrillbananas/wsFreedomStudio/embedded-software/freedom-metal/src/drivers/sifive_fe310-g000_pll.c:239
    if (__METAL_GET_FIELD(div, DIV_1))
2001370a:	fcc42783          	lw	a5,-52(s0)
2001370e:	1007f713          	andi	a4,a5,256
20013712:	0ff00793          	li	a5,255
20013716:	00e7f563          	bgeu	a5,a4,20013720 <__metal_driver_sifive_fe310_g000_pll_get_rate_hz+0x14e>
/home/letsgrillbananas/wsFreedomStudio/embedded-software/freedom-metal/src/drivers/sifive_fe310-g000_pll.c:240
        return pllout;
2001371a:	fb842783          	lw	a5,-72(s0)
2001371e:	a819                	j	20013734 <__metal_driver_sifive_fe310_g000_pll_get_rate_hz+0x162>
/home/letsgrillbananas/wsFreedomStudio/embedded-software/freedom-metal/src/drivers/sifive_fe310-g000_pll.c:242
    return pllout / (2 * (__METAL_GET_FIELD(div, DIV_DIV) + 1));
20013720:	fb842703          	lw	a4,-72(s0)
20013724:	fcc42783          	lw	a5,-52(s0)
20013728:	03f7f793          	andi	a5,a5,63
2001372c:	0785                	addi	a5,a5,1
2001372e:	0786                	slli	a5,a5,0x1
20013730:	02f757b3          	divu	a5,a4,a5
/home/letsgrillbananas/wsFreedomStudio/embedded-software/freedom-metal/src/drivers/sifive_fe310-g000_pll.c:243
}
20013734:	853e                	mv	a0,a5
20013736:	40f6                	lw	ra,92(sp)
20013738:	4466                	lw	s0,88(sp)
2001373a:	6125                	addi	sp,sp,96
2001373c:	8082                	ret

2001373e <find_closest_config>:
find_closest_config():
/home/letsgrillbananas/wsFreedomStudio/embedded-software/freedom-metal/src/drivers/sifive_fe310-g000_pll.c:253
static int find_closest_config(long ref_hz, long rate) {
2001373e:	7139                	addi	sp,sp,-64
20013740:	de06                	sw	ra,60(sp)
20013742:	dc22                	sw	s0,56(sp)
20013744:	0080                	addi	s0,sp,64
20013746:	fca42623          	sw	a0,-52(s0)
2001374a:	fcb42423          	sw	a1,-56(s0)
/home/letsgrillbananas/wsFreedomStudio/embedded-software/freedom-metal/src/drivers/sifive_fe310-g000_pll.c:254
    int closest_index = -1;
2001374e:	57fd                	li	a5,-1
20013750:	fef42623          	sw	a5,-20(s0)
/home/letsgrillbananas/wsFreedomStudio/embedded-software/freedom-metal/src/drivers/sifive_fe310-g000_pll.c:255
    long closest_diff = LONG_MAX;
20013754:	800007b7          	lui	a5,0x80000
20013758:	fff7c793          	not	a5,a5
2001375c:	fef42423          	sw	a5,-24(s0)
/home/letsgrillbananas/wsFreedomStudio/embedded-software/freedom-metal/src/drivers/sifive_fe310-g000_pll.c:259
    for (int i = (sizeof(pll_configs) / sizeof(pll_configs[0])) - 1; i >= 0;
20013760:	04300793          	li	a5,67
20013764:	fef42223          	sw	a5,-28(s0)
20013768:	a0ad                	j	200137d2 <find_closest_config+0x94>
/home/letsgrillbananas/wsFreedomStudio/embedded-software/freedom-metal/src/drivers/sifive_fe310-g000_pll.c:261
        long config_freq = get_pll_config_freq(ref_hz, &(pll_configs[i]));
2001376a:	fcc42683          	lw	a3,-52(s0)
2001376e:	fe442783          	lw	a5,-28(s0)
20013772:	00579713          	slli	a4,a5,0x5
20013776:	200107b7          	lui	a5,0x20010
2001377a:	4fc78793          	addi	a5,a5,1276 # 200104fc <pll_configs>
2001377e:	97ba                	add	a5,a5,a4
20013780:	85be                	mv	a1,a5
20013782:	8536                	mv	a0,a3
20013784:	3385                	jal	200134e4 <get_pll_config_freq>
20013786:	fea42023          	sw	a0,-32(s0)
/home/letsgrillbananas/wsFreedomStudio/embedded-software/freedom-metal/src/drivers/sifive_fe310-g000_pll.c:262
        if (config_freq != PLL_CONFIG_NOT_VALID) {
2001378a:	fe042703          	lw	a4,-32(s0)
2001378e:	57fd                	li	a5,-1
20013790:	02f70c63          	beq	a4,a5,200137c8 <find_closest_config+0x8a>
/home/letsgrillbananas/wsFreedomStudio/embedded-software/freedom-metal/src/drivers/sifive_fe310-g000_pll.c:263
            long freq_diff = labs(config_freq - rate);
20013794:	fe042703          	lw	a4,-32(s0)
20013798:	fc842783          	lw	a5,-56(s0)
2001379c:	8f1d                	sub	a4,a4,a5
2001379e:	41f75793          	srai	a5,a4,0x1f
200137a2:	8f3d                	xor	a4,a4,a5
200137a4:	40f707b3          	sub	a5,a4,a5
200137a8:	fcf42e23          	sw	a5,-36(s0)
/home/letsgrillbananas/wsFreedomStudio/embedded-software/freedom-metal/src/drivers/sifive_fe310-g000_pll.c:265
            if (freq_diff < closest_diff) {
200137ac:	fdc42703          	lw	a4,-36(s0)
200137b0:	fe842783          	lw	a5,-24(s0)
200137b4:	00f75a63          	bge	a4,a5,200137c8 <find_closest_config+0x8a>
/home/letsgrillbananas/wsFreedomStudio/embedded-software/freedom-metal/src/drivers/sifive_fe310-g000_pll.c:266
                closest_index = i;
200137b8:	fe442783          	lw	a5,-28(s0)
200137bc:	fef42623          	sw	a5,-20(s0)
/home/letsgrillbananas/wsFreedomStudio/embedded-software/freedom-metal/src/drivers/sifive_fe310-g000_pll.c:267
                closest_diff = freq_diff;
200137c0:	fdc42783          	lw	a5,-36(s0)
200137c4:	fef42423          	sw	a5,-24(s0)
/home/letsgrillbananas/wsFreedomStudio/embedded-software/freedom-metal/src/drivers/sifive_fe310-g000_pll.c:260
         i--) {
200137c8:	fe442783          	lw	a5,-28(s0)
200137cc:	17fd                	addi	a5,a5,-1
200137ce:	fef42223          	sw	a5,-28(s0)
/home/letsgrillbananas/wsFreedomStudio/embedded-software/freedom-metal/src/drivers/sifive_fe310-g000_pll.c:259 (discriminator 1)
    for (int i = (sizeof(pll_configs) / sizeof(pll_configs[0])) - 1; i >= 0;
200137d2:	fe442783          	lw	a5,-28(s0)
200137d6:	f807dae3          	bgez	a5,2001376a <find_closest_config+0x2c>
/home/letsgrillbananas/wsFreedomStudio/embedded-software/freedom-metal/src/drivers/sifive_fe310-g000_pll.c:272
    return closest_index;
200137da:	fec42783          	lw	a5,-20(s0)
/home/letsgrillbananas/wsFreedomStudio/embedded-software/freedom-metal/src/drivers/sifive_fe310-g000_pll.c:273
}
200137de:	853e                	mv	a0,a5
200137e0:	50f2                	lw	ra,60(sp)
200137e2:	5462                	lw	s0,56(sp)
200137e4:	6121                	addi	sp,sp,64
200137e6:	8082                	ret

200137e8 <configure_pll>:
configure_pll():
/home/letsgrillbananas/wsFreedomStudio/embedded-software/freedom-metal/src/drivers/sifive_fe310-g000_pll.c:290
                          const struct pll_config_t *config) {
200137e8:	7179                	addi	sp,sp,-48
200137ea:	d606                	sw	ra,44(sp)
200137ec:	d422                	sw	s0,40(sp)
200137ee:	1800                	addi	s0,sp,48
200137f0:	fca42e23          	sw	a0,-36(s0)
200137f4:	fcb42c23          	sw	a1,-40(s0)
200137f8:	fcc42a23          	sw	a2,-44(s0)
/home/letsgrillbananas/wsFreedomStudio/embedded-software/freedom-metal/src/drivers/sifive_fe310-g000_pll.c:291
    __METAL_ACCESS_ONCE(pllcfg) &= ~(PLL_R);
200137fc:	fdc42783          	lw	a5,-36(s0)
20013800:	439c                	lw	a5,0(a5)
20013802:	ff87f713          	andi	a4,a5,-8
20013806:	fdc42783          	lw	a5,-36(s0)
2001380a:	c398                	sw	a4,0(a5)
/home/letsgrillbananas/wsFreedomStudio/embedded-software/freedom-metal/src/drivers/sifive_fe310-g000_pll.c:292
    __METAL_ACCESS_ONCE(pllcfg) |= PLL_R_SHIFT(config->r);
2001380c:	fdc42783          	lw	a5,-36(s0)
20013810:	4398                	lw	a4,0(a5)
20013812:	fd442783          	lw	a5,-44(s0)
20013816:	4b9c                	lw	a5,16(a5)
20013818:	8b9d                	andi	a5,a5,7
2001381a:	8f5d                	or	a4,a4,a5
2001381c:	fdc42783          	lw	a5,-36(s0)
20013820:	c398                	sw	a4,0(a5)
/home/letsgrillbananas/wsFreedomStudio/embedded-software/freedom-metal/src/drivers/sifive_fe310-g000_pll.c:294
    __METAL_ACCESS_ONCE(pllcfg) &= ~(PLL_F);
20013822:	fdc42783          	lw	a5,-36(s0)
20013826:	439c                	lw	a5,0(a5)
20013828:	c0f7f713          	andi	a4,a5,-1009
2001382c:	fdc42783          	lw	a5,-36(s0)
20013830:	c398                	sw	a4,0(a5)
/home/letsgrillbananas/wsFreedomStudio/embedded-software/freedom-metal/src/drivers/sifive_fe310-g000_pll.c:295
    __METAL_ACCESS_ONCE(pllcfg) |= PLL_F_SHIFT(config->f);
20013832:	fdc42783          	lw	a5,-36(s0)
20013836:	4398                	lw	a4,0(a5)
20013838:	fd442783          	lw	a5,-44(s0)
2001383c:	4bdc                	lw	a5,20(a5)
2001383e:	0792                	slli	a5,a5,0x4
20013840:	3f07f793          	andi	a5,a5,1008
20013844:	8f5d                	or	a4,a4,a5
20013846:	fdc42783          	lw	a5,-36(s0)
2001384a:	c398                	sw	a4,0(a5)
/home/letsgrillbananas/wsFreedomStudio/embedded-software/freedom-metal/src/drivers/sifive_fe310-g000_pll.c:297
    __METAL_ACCESS_ONCE(pllcfg) &= ~(PLL_Q);
2001384c:	fdc42783          	lw	a5,-36(s0)
20013850:	4398                	lw	a4,0(a5)
20013852:	77fd                	lui	a5,0xfffff
20013854:	3ff78793          	addi	a5,a5,1023 # fffff3ff <__global_pointer$+0x7fffe777>
20013858:	8f7d                	and	a4,a4,a5
2001385a:	fdc42783          	lw	a5,-36(s0)
2001385e:	c398                	sw	a4,0(a5)
/home/letsgrillbananas/wsFreedomStudio/embedded-software/freedom-metal/src/drivers/sifive_fe310-g000_pll.c:298
    __METAL_ACCESS_ONCE(pllcfg) |= PLL_Q_SHIFT(config->q);
20013860:	fdc42783          	lw	a5,-36(s0)
20013864:	4398                	lw	a4,0(a5)
20013866:	fd442783          	lw	a5,-44(s0)
2001386a:	4f9c                	lw	a5,24(a5)
2001386c:	00a79693          	slli	a3,a5,0xa
20013870:	6785                	lui	a5,0x1
20013872:	c0078793          	addi	a5,a5,-1024 # c00 <__heap_size+0x400>
20013876:	8ff5                	and	a5,a5,a3
20013878:	8f5d                	or	a4,a4,a5
2001387a:	fdc42783          	lw	a5,-36(s0)
2001387e:	c398                	sw	a4,0(a5)
/home/letsgrillbananas/wsFreedomStudio/embedded-software/freedom-metal/src/drivers/sifive_fe310-g000_pll.c:300
    if (config->d < 0) {
20013880:	fd442783          	lw	a5,-44(s0)
20013884:	4fdc                	lw	a5,28(a5)
20013886:	0207db63          	bgez	a5,200138bc <configure_pll+0xd4>
/home/letsgrillbananas/wsFreedomStudio/embedded-software/freedom-metal/src/drivers/sifive_fe310-g000_pll.c:302
        __METAL_ACCESS_ONCE(plloutdiv) |= DIV_1;
2001388a:	fd842783          	lw	a5,-40(s0)
2001388e:	439c                	lw	a5,0(a5)
20013890:	1007e713          	ori	a4,a5,256
20013894:	fd842783          	lw	a5,-40(s0)
20013898:	c398                	sw	a4,0(a5)
/home/letsgrillbananas/wsFreedomStudio/embedded-software/freedom-metal/src/drivers/sifive_fe310-g000_pll.c:304
        __METAL_ACCESS_ONCE(plloutdiv) &= ~(DIV_DIV);
2001389a:	fd842783          	lw	a5,-40(s0)
2001389e:	439c                	lw	a5,0(a5)
200138a0:	fc07f713          	andi	a4,a5,-64
200138a4:	fd842783          	lw	a5,-40(s0)
200138a8:	c398                	sw	a4,0(a5)
/home/letsgrillbananas/wsFreedomStudio/embedded-software/freedom-metal/src/drivers/sifive_fe310-g000_pll.c:305
        __METAL_ACCESS_ONCE(plloutdiv) |= PLL_DIV_SHIFT(1);
200138aa:	fd842783          	lw	a5,-40(s0)
200138ae:	439c                	lw	a5,0(a5)
200138b0:	0017e713          	ori	a4,a5,1
200138b4:	fd842783          	lw	a5,-40(s0)
200138b8:	c398                	sw	a4,0(a5)
200138ba:	a82d                	j	200138f4 <configure_pll+0x10c>
/home/letsgrillbananas/wsFreedomStudio/embedded-software/freedom-metal/src/drivers/sifive_fe310-g000_pll.c:307
        __METAL_ACCESS_ONCE(plloutdiv) &= ~(DIV_1);
200138bc:	fd842783          	lw	a5,-40(s0)
200138c0:	439c                	lw	a5,0(a5)
200138c2:	eff7f713          	andi	a4,a5,-257
200138c6:	fd842783          	lw	a5,-40(s0)
200138ca:	c398                	sw	a4,0(a5)
/home/letsgrillbananas/wsFreedomStudio/embedded-software/freedom-metal/src/drivers/sifive_fe310-g000_pll.c:309
        __METAL_ACCESS_ONCE(plloutdiv) &= ~(DIV_DIV);
200138cc:	fd842783          	lw	a5,-40(s0)
200138d0:	439c                	lw	a5,0(a5)
200138d2:	fc07f713          	andi	a4,a5,-64
200138d6:	fd842783          	lw	a5,-40(s0)
200138da:	c398                	sw	a4,0(a5)
/home/letsgrillbananas/wsFreedomStudio/embedded-software/freedom-metal/src/drivers/sifive_fe310-g000_pll.c:310
        __METAL_ACCESS_ONCE(plloutdiv) |= PLL_DIV_SHIFT(config->d);
200138dc:	fd842783          	lw	a5,-40(s0)
200138e0:	4398                	lw	a4,0(a5)
200138e2:	fd442783          	lw	a5,-44(s0)
200138e6:	4fdc                	lw	a5,28(a5)
200138e8:	03f7f793          	andi	a5,a5,63
200138ec:	8f5d                	or	a4,a4,a5
200138ee:	fd842783          	lw	a5,-40(s0)
200138f2:	c398                	sw	a4,0(a5)
/home/letsgrillbananas/wsFreedomStudio/embedded-software/freedom-metal/src/drivers/sifive_fe310-g000_pll.c:313
    __METAL_ACCESS_ONCE(pllcfg) &= ~(PLL_BYPASS);
200138f4:	fdc42783          	lw	a5,-36(s0)
200138f8:	4398                	lw	a4,0(a5)
200138fa:	fffc07b7          	lui	a5,0xfffc0
200138fe:	17fd                	addi	a5,a5,-1
20013900:	8f7d                	and	a4,a4,a5
20013902:	fdc42783          	lw	a5,-36(s0)
20013906:	c398                	sw	a4,0(a5)
/home/letsgrillbananas/wsFreedomStudio/embedded-software/freedom-metal/src/drivers/sifive_fe310-g000_pll.c:318
    __metal_driver_riscv_clint0_command_request(__METAL_DT_RISCV_CLINT0_HANDLE,
20013908:	fe040793          	addi	a5,s0,-32
2001390c:	863e                	mv	a2,a5
2001390e:	4585                	li	a1,1
20013910:	800007b7          	lui	a5,0x80000
20013914:	49078513          	addi	a0,a5,1168 # 80000490 <__global_pointer$+0xfffff808>
20013918:	dbffd0ef          	jal	ra,200116d6 <__metal_driver_riscv_clint0_command_request>
/home/letsgrillbananas/wsFreedomStudio/embedded-software/freedom-metal/src/drivers/sifive_fe310-g000_pll.c:320
    mtime_end = mtime + PLL_LOCK_WAIT_TICKS;
2001391c:	fe042683          	lw	a3,-32(s0)
20013920:	fe442703          	lw	a4,-28(s0)
20013924:	4591                	li	a1,4
20013926:	4601                	li	a2,0
20013928:	00b687b3          	add	a5,a3,a1
2001392c:	853e                	mv	a0,a5
2001392e:	00d53533          	sltu	a0,a0,a3
20013932:	00c70833          	add	a6,a4,a2
20013936:	01050733          	add	a4,a0,a6
2001393a:	883a                	mv	a6,a4
2001393c:	fef42423          	sw	a5,-24(s0)
20013940:	ff042623          	sw	a6,-20(s0)
/home/letsgrillbananas/wsFreedomStudio/embedded-software/freedom-metal/src/drivers/sifive_fe310-g000_pll.c:321
    while (mtime <= mtime_end) {
20013944:	a819                	j	2001395a <configure_pll+0x172>
/home/letsgrillbananas/wsFreedomStudio/embedded-software/freedom-metal/src/drivers/sifive_fe310-g000_pll.c:322
        __metal_driver_riscv_clint0_command_request(
20013946:	fe040793          	addi	a5,s0,-32
2001394a:	863e                	mv	a2,a5
2001394c:	4585                	li	a1,1
2001394e:	800007b7          	lui	a5,0x80000
20013952:	49078513          	addi	a0,a5,1168 # 80000490 <__global_pointer$+0xfffff808>
20013956:	d81fd0ef          	jal	ra,200116d6 <__metal_driver_riscv_clint0_command_request>
/home/letsgrillbananas/wsFreedomStudio/embedded-software/freedom-metal/src/drivers/sifive_fe310-g000_pll.c:321
    while (mtime <= mtime_end) {
2001395a:	fe042783          	lw	a5,-32(s0)
2001395e:	fe442803          	lw	a6,-28(s0)
20013962:	fec42703          	lw	a4,-20(s0)
20013966:	86c2                	mv	a3,a6
20013968:	00d76b63          	bltu	a4,a3,2001397e <configure_pll+0x196>
2001396c:	fec42703          	lw	a4,-20(s0)
20013970:	86c2                	mv	a3,a6
20013972:	fcd71ae3          	bne	a4,a3,20013946 <configure_pll+0x15e>
20013976:	fe842703          	lw	a4,-24(s0)
2001397a:	fcf776e3          	bgeu	a4,a5,20013946 <configure_pll+0x15e>
/home/letsgrillbananas/wsFreedomStudio/embedded-software/freedom-metal/src/drivers/sifive_fe310-g000_pll.c:340
    while ((__METAL_ACCESS_ONCE(pllcfg) & PLL_LOCK) == 0)
2001397e:	0001                	nop
/home/letsgrillbananas/wsFreedomStudio/embedded-software/freedom-metal/src/drivers/sifive_fe310-g000_pll.c:340 (discriminator 1)
20013980:	fdc42783          	lw	a5,-36(s0)
20013984:	439c                	lw	a5,0(a5)
20013986:	fe07dde3          	bgez	a5,20013980 <configure_pll+0x198>
/home/letsgrillbananas/wsFreedomStudio/embedded-software/freedom-metal/src/drivers/sifive_fe310-g000_pll.c:342
}
2001398a:	0001                	nop
2001398c:	50b2                	lw	ra,44(sp)
2001398e:	5422                	lw	s0,40(sp)
20013990:	6145                	addi	sp,sp,48
20013992:	8082                	ret

20013994 <__metal_driver_sifive_fe310_g000_pll_set_rate_hz>:
__metal_driver_sifive_fe310_g000_pll_set_rate_hz():
/home/letsgrillbananas/wsFreedomStudio/embedded-software/freedom-metal/src/drivers/sifive_fe310-g000_pll.c:345
                                                      long rate) {
20013994:	715d                	addi	sp,sp,-80
20013996:	c686                	sw	ra,76(sp)
20013998:	c4a2                	sw	s0,72(sp)
2001399a:	0880                	addi	s0,sp,80
2001399c:	faa42e23          	sw	a0,-68(s0)
200139a0:	fab42c23          	sw	a1,-72(s0)
/home/letsgrillbananas/wsFreedomStudio/embedded-software/freedom-metal/src/drivers/sifive_fe310-g000_pll.c:347
        __metal_driver_sifive_fe310_g000_pll_pllref(clock);
200139a4:	fbc42503          	lw	a0,-68(s0)
200139a8:	a9dff0ef          	jal	ra,20013444 <__metal_driver_sifive_fe310_g000_pll_pllref>
200139ac:	fea42623          	sw	a0,-20(s0)
/home/letsgrillbananas/wsFreedomStudio/embedded-software/freedom-metal/src/drivers/sifive_fe310-g000_pll.c:349
        __metal_driver_sifive_fe310_g000_pll_pllsel0(clock);
200139b0:	fbc42503          	lw	a0,-68(s0)
200139b4:	a77ff0ef          	jal	ra,2001342a <__metal_driver_sifive_fe310_g000_pll_pllsel0>
200139b8:	fea42423          	sw	a0,-24(s0)
/home/letsgrillbananas/wsFreedomStudio/embedded-software/freedom-metal/src/drivers/sifive_fe310-g000_pll.c:351
        __metal_driver_sifive_fe310_g000_pll_config_offset(clock);
200139bc:	fbc42503          	lw	a0,-68(s0)
200139c0:	3ce9                	jal	2001349a <__metal_driver_sifive_fe310_g000_pll_config_offset>
200139c2:	fea42223          	sw	a0,-28(s0)
/home/letsgrillbananas/wsFreedomStudio/embedded-software/freedom-metal/src/drivers/sifive_fe310-g000_pll.c:353
        __metal_driver_sifive_fe310_g000_pll_divider_offset(clock);
200139c6:	fbc42503          	lw	a0,-68(s0)
200139ca:	aabff0ef          	jal	ra,20013474 <__metal_driver_sifive_fe310_g000_pll_divider_offset>
200139ce:	fea42023          	sw	a0,-32(s0)
/home/letsgrillbananas/wsFreedomStudio/embedded-software/freedom-metal/src/drivers/sifive_fe310-g000_pll.c:354
    long base = __metal_driver_sifive_fe310_g000_prci_base();
200139d2:	34fd                	jal	200134c0 <__metal_driver_sifive_fe310_g000_prci_base>
200139d4:	fca42e23          	sw	a0,-36(s0)
/home/letsgrillbananas/wsFreedomStudio/embedded-software/freedom-metal/src/drivers/sifive_fe310-g000_pll.c:356
    __metal_io_u32 *pllcfg = (__metal_io_u32 *)(base + config_offset);
200139d8:	fdc42703          	lw	a4,-36(s0)
200139dc:	fe442783          	lw	a5,-28(s0)
200139e0:	97ba                	add	a5,a5,a4
200139e2:	fcf42c23          	sw	a5,-40(s0)
/home/letsgrillbananas/wsFreedomStudio/embedded-software/freedom-metal/src/drivers/sifive_fe310-g000_pll.c:357
    __metal_io_u32 *plloutdiv = (__metal_io_u32 *)(base + divider_offset);
200139e6:	fdc42703          	lw	a4,-36(s0)
200139ea:	fe042783          	lw	a5,-32(s0)
200139ee:	97ba                	add	a5,a5,a4
200139f0:	fcf42a23          	sw	a5,-44(s0)
/home/letsgrillbananas/wsFreedomStudio/embedded-software/freedom-metal/src/drivers/sifive_fe310-g000_pll.c:360
    if (__METAL_ACCESS_ONCE(pllcfg) & PLL_SEL)
200139f4:	fd842783          	lw	a5,-40(s0)
200139f8:	4398                	lw	a4,0(a5)
200139fa:	67c1                	lui	a5,0x10
200139fc:	8ff9                	and	a5,a5,a4
200139fe:	cb91                	beqz	a5,20013a12 <__metal_driver_sifive_fe310_g000_pll_set_rate_hz+0x7e>
/home/letsgrillbananas/wsFreedomStudio/embedded-software/freedom-metal/src/drivers/sifive_fe310-g000_pll.c:361
        __METAL_ACCESS_ONCE(pllcfg) &= ~(PLL_SEL);
20013a00:	fd842783          	lw	a5,-40(s0)
20013a04:	4398                	lw	a4,0(a5)
20013a06:	77c1                	lui	a5,0xffff0
20013a08:	17fd                	addi	a5,a5,-1
20013a0a:	8f7d                	and	a4,a4,a5
20013a0c:	fd842783          	lw	a5,-40(s0)
20013a10:	c398                	sw	a4,0(a5)
/home/letsgrillbananas/wsFreedomStudio/embedded-software/freedom-metal/src/drivers/sifive_fe310-g000_pll.c:366
        __METAL_ACCESS_ONCE(pllcfg) & PLL_REFSEL ? pllref : pllsel0);
20013a12:	fd842783          	lw	a5,-40(s0)
20013a16:	4398                	lw	a4,0(a5)
20013a18:	000207b7          	lui	a5,0x20
20013a1c:	8ff9                	and	a5,a5,a4
/home/letsgrillbananas/wsFreedomStudio/embedded-software/freedom-metal/src/drivers/sifive_fe310-g000_pll.c:365
    long ref_hz = metal_clock_get_rate_hz(
20013a1e:	c781                	beqz	a5,20013a26 <__metal_driver_sifive_fe310_g000_pll_set_rate_hz+0x92>
/home/letsgrillbananas/wsFreedomStudio/embedded-software/freedom-metal/src/drivers/sifive_fe310-g000_pll.c:365 (discriminator 1)
20013a20:	fec42783          	lw	a5,-20(s0)
20013a24:	a019                	j	20013a2a <__metal_driver_sifive_fe310_g000_pll_set_rate_hz+0x96>
/home/letsgrillbananas/wsFreedomStudio/embedded-software/freedom-metal/src/drivers/sifive_fe310-g000_pll.c:365 (discriminator 2)
20013a26:	fe842783          	lw	a5,-24(s0)
/home/letsgrillbananas/wsFreedomStudio/embedded-software/freedom-metal/src/drivers/sifive_fe310-g000_pll.c:365 (discriminator 4)
20013a2a:	853e                	mv	a0,a5
20013a2c:	2aad                	jal	20013ba6 <metal_clock_get_rate_hz>
20013a2e:	fca42823          	sw	a0,-48(s0)
/home/letsgrillbananas/wsFreedomStudio/embedded-software/freedom-metal/src/drivers/sifive_fe310-g000_pll.c:370 (discriminator 4)
    if ((ref_hz * 3 / 4) <= rate && (ref_hz * 5 / 4) >= rate) {
20013a32:	fd042703          	lw	a4,-48(s0)
20013a36:	87ba                	mv	a5,a4
20013a38:	0786                	slli	a5,a5,0x1
20013a3a:	97ba                	add	a5,a5,a4
20013a3c:	41f7d713          	srai	a4,a5,0x1f
20013a40:	8b0d                	andi	a4,a4,3
20013a42:	97ba                	add	a5,a5,a4
20013a44:	8789                	srai	a5,a5,0x2
20013a46:	873e                	mv	a4,a5
20013a48:	fb842783          	lw	a5,-72(s0)
20013a4c:	02e7cb63          	blt	a5,a4,20013a82 <__metal_driver_sifive_fe310_g000_pll_set_rate_hz+0xee>
/home/letsgrillbananas/wsFreedomStudio/embedded-software/freedom-metal/src/drivers/sifive_fe310-g000_pll.c:370 (discriminator 1)
20013a50:	fd042703          	lw	a4,-48(s0)
20013a54:	87ba                	mv	a5,a4
20013a56:	078a                	slli	a5,a5,0x2
20013a58:	97ba                	add	a5,a5,a4
20013a5a:	41f7d713          	srai	a4,a5,0x1f
20013a5e:	8b0d                	andi	a4,a4,3
20013a60:	97ba                	add	a5,a5,a4
20013a62:	8789                	srai	a5,a5,0x2
20013a64:	873e                	mv	a4,a5
20013a66:	fb842783          	lw	a5,-72(s0)
20013a6a:	00f74c63          	blt	a4,a5,20013a82 <__metal_driver_sifive_fe310_g000_pll_set_rate_hz+0xee>
/home/letsgrillbananas/wsFreedomStudio/embedded-software/freedom-metal/src/drivers/sifive_fe310-g000_pll.c:371
        __METAL_ACCESS_ONCE(pllcfg) |= PLL_BYPASS;
20013a6e:	fd842783          	lw	a5,-40(s0)
20013a72:	4398                	lw	a4,0(a5)
20013a74:	000407b7          	lui	a5,0x40
20013a78:	8f5d                	or	a4,a4,a5
20013a7a:	fd842783          	lw	a5,-40(s0)
20013a7e:	c398                	sw	a4,0(a5)
20013a80:	a0b1                	j	20013acc <__metal_driver_sifive_fe310_g000_pll_set_rate_hz+0x138>
/home/letsgrillbananas/wsFreedomStudio/embedded-software/freedom-metal/src/drivers/sifive_fe310-g000_pll.c:373
        int config_index = find_closest_config(ref_hz, rate);
20013a82:	fb842583          	lw	a1,-72(s0)
20013a86:	fd042503          	lw	a0,-48(s0)
20013a8a:	3955                	jal	2001373e <find_closest_config>
20013a8c:	fca42623          	sw	a0,-52(s0)
/home/letsgrillbananas/wsFreedomStudio/embedded-software/freedom-metal/src/drivers/sifive_fe310-g000_pll.c:374
        if (config_index != -1) {
20013a90:	fcc42703          	lw	a4,-52(s0)
20013a94:	57fd                	li	a5,-1
20013a96:	02f70263          	beq	a4,a5,20013aba <__metal_driver_sifive_fe310_g000_pll_set_rate_hz+0x126>
/home/letsgrillbananas/wsFreedomStudio/embedded-software/freedom-metal/src/drivers/sifive_fe310-g000_pll.c:375
            configure_pll(pllcfg, plloutdiv, &(pll_configs[config_index]));
20013a9a:	fcc42783          	lw	a5,-52(s0)
20013a9e:	00579713          	slli	a4,a5,0x5
20013aa2:	200107b7          	lui	a5,0x20010
20013aa6:	4fc78793          	addi	a5,a5,1276 # 200104fc <pll_configs>
20013aaa:	97ba                	add	a5,a5,a4
20013aac:	863e                	mv	a2,a5
20013aae:	fd442583          	lw	a1,-44(s0)
20013ab2:	fd842503          	lw	a0,-40(s0)
20013ab6:	3b0d                	jal	200137e8 <configure_pll>
20013ab8:	a811                	j	20013acc <__metal_driver_sifive_fe310_g000_pll_set_rate_hz+0x138>
/home/letsgrillbananas/wsFreedomStudio/embedded-software/freedom-metal/src/drivers/sifive_fe310-g000_pll.c:378
            __METAL_ACCESS_ONCE(pllcfg) |= PLL_BYPASS;
20013aba:	fd842783          	lw	a5,-40(s0)
20013abe:	4398                	lw	a4,0(a5)
20013ac0:	000407b7          	lui	a5,0x40
20013ac4:	8f5d                	or	a4,a4,a5
20013ac6:	fd842783          	lw	a5,-40(s0)
20013aca:	c398                	sw	a4,0(a5)
/home/letsgrillbananas/wsFreedomStudio/embedded-software/freedom-metal/src/drivers/sifive_fe310-g000_pll.c:383
    __METAL_ACCESS_ONCE(pllcfg) |= PLL_SEL;
20013acc:	fd842783          	lw	a5,-40(s0)
20013ad0:	4398                	lw	a4,0(a5)
20013ad2:	67c1                	lui	a5,0x10
20013ad4:	8f5d                	or	a4,a4,a5
20013ad6:	fd842783          	lw	a5,-40(s0)
20013ada:	c398                	sw	a4,0(a5)
/home/letsgrillbananas/wsFreedomStudio/embedded-software/freedom-metal/src/drivers/sifive_fe310-g000_pll.c:385
    return __metal_driver_sifive_fe310_g000_pll_get_rate_hz(clock);
20013adc:	fbc42503          	lw	a0,-68(s0)
20013ae0:	3ccd                	jal	200135d2 <__metal_driver_sifive_fe310_g000_pll_get_rate_hz>
20013ae2:	87aa                	mv	a5,a0
/home/letsgrillbananas/wsFreedomStudio/embedded-software/freedom-metal/src/drivers/sifive_fe310-g000_pll.c:386
}
20013ae4:	853e                	mv	a0,a5
20013ae6:	40b6                	lw	ra,76(sp)
20013ae8:	4426                	lw	s0,72(sp)
20013aea:	6161                	addi	sp,sp,80
20013aec:	8082                	ret

20013aee <__metal_driver_sifive_fe310_g000_prci_base>:
__metal_driver_sifive_fe310_g000_prci_base():
/home/letsgrillbananas/wsFreedomStudio/embedded-software/bsp/build/debug/./metal/machine.h:1364
{
20013aee:	1141                	addi	sp,sp,-16
20013af0:	c622                	sw	s0,12(sp)
20013af2:	0800                	addi	s0,sp,16
/home/letsgrillbananas/wsFreedomStudio/embedded-software/bsp/build/debug/./metal/machine.h:1365
		return METAL_SIFIVE_FE310_G000_PRCI_10008000_BASE_ADDRESS;
20013af4:	100087b7          	lui	a5,0x10008
/home/letsgrillbananas/wsFreedomStudio/embedded-software/bsp/build/debug/./metal/machine.h:1366
}
20013af8:	853e                	mv	a0,a5
20013afa:	4432                	lw	s0,12(sp)
20013afc:	0141                	addi	sp,sp,16
20013afe:	8082                	ret

20013b00 <__metal_driver_sifive_fe310_g000_prci_get_reg>:
__metal_driver_sifive_fe310_g000_prci_get_reg():
/home/letsgrillbananas/wsFreedomStudio/embedded-software/freedom-metal/src/drivers/sifive_fe310-g000_prci.c:12

#include <metal/drivers/sifive_fe310-g000_prci.h>
#include <metal/machine.h>

long __metal_driver_sifive_fe310_g000_prci_get_reg(
    const struct __metal_driver_sifive_fe310_g000_prci *prci, long offset) {
20013b00:	7179                	addi	sp,sp,-48
20013b02:	d606                	sw	ra,44(sp)
20013b04:	d422                	sw	s0,40(sp)
20013b06:	1800                	addi	s0,sp,48
20013b08:	fca42e23          	sw	a0,-36(s0)
20013b0c:	fcb42c23          	sw	a1,-40(s0)
/home/letsgrillbananas/wsFreedomStudio/embedded-software/freedom-metal/src/drivers/sifive_fe310-g000_prci.c:13
    unsigned long base = __metal_driver_sifive_fe310_g000_prci_base();
20013b10:	3ff9                	jal	20013aee <__metal_driver_sifive_fe310_g000_prci_base>
20013b12:	87aa                	mv	a5,a0
20013b14:	fef42623          	sw	a5,-20(s0)
/home/letsgrillbananas/wsFreedomStudio/embedded-software/freedom-metal/src/drivers/sifive_fe310-g000_prci.c:14
    return __METAL_ACCESS_ONCE((__metal_io_u32 *)(base + offset));
20013b18:	fd842703          	lw	a4,-40(s0)
20013b1c:	fec42783          	lw	a5,-20(s0)
20013b20:	97ba                	add	a5,a5,a4
20013b22:	439c                	lw	a5,0(a5)
/home/letsgrillbananas/wsFreedomStudio/embedded-software/freedom-metal/src/drivers/sifive_fe310-g000_prci.c:15
}
20013b24:	853e                	mv	a0,a5
20013b26:	50b2                	lw	ra,44(sp)
20013b28:	5422                	lw	s0,40(sp)
20013b2a:	6145                	addi	sp,sp,48
20013b2c:	8082                	ret

20013b2e <__metal_driver_sifive_fe310_g000_prci_set_reg>:
__metal_driver_sifive_fe310_g000_prci_set_reg():
/home/letsgrillbananas/wsFreedomStudio/embedded-software/freedom-metal/src/drivers/sifive_fe310-g000_prci.c:19

long __metal_driver_sifive_fe310_g000_prci_set_reg(
    const struct __metal_driver_sifive_fe310_g000_prci *prci, long offset,
    long value) {
20013b2e:	7179                	addi	sp,sp,-48
20013b30:	d606                	sw	ra,44(sp)
20013b32:	d422                	sw	s0,40(sp)
20013b34:	1800                	addi	s0,sp,48
20013b36:	fca42e23          	sw	a0,-36(s0)
20013b3a:	fcb42c23          	sw	a1,-40(s0)
20013b3e:	fcc42a23          	sw	a2,-44(s0)
/home/letsgrillbananas/wsFreedomStudio/embedded-software/freedom-metal/src/drivers/sifive_fe310-g000_prci.c:20
    unsigned long base = __metal_driver_sifive_fe310_g000_prci_base();
20013b42:	3775                	jal	20013aee <__metal_driver_sifive_fe310_g000_prci_base>
20013b44:	87aa                	mv	a5,a0
20013b46:	fef42623          	sw	a5,-20(s0)
/home/letsgrillbananas/wsFreedomStudio/embedded-software/freedom-metal/src/drivers/sifive_fe310-g000_prci.c:21
    return __METAL_ACCESS_ONCE((__metal_io_u32 *)(base + offset)) = value;
20013b4a:	fd842703          	lw	a4,-40(s0)
20013b4e:	fec42783          	lw	a5,-20(s0)
20013b52:	97ba                	add	a5,a5,a4
20013b54:	873e                	mv	a4,a5
20013b56:	fd442783          	lw	a5,-44(s0)
20013b5a:	c31c                	sw	a5,0(a4)
/home/letsgrillbananas/wsFreedomStudio/embedded-software/freedom-metal/src/drivers/sifive_fe310-g000_prci.c:22
}
20013b5c:	853e                	mv	a0,a5
20013b5e:	50b2                	lw	ra,44(sp)
20013b60:	5422                	lw	s0,40(sp)
20013b62:	6145                	addi	sp,sp,48
20013b64:	8082                	ret

20013b66 <_metal_clock_call_all_callbacks>:
_metal_clock_call_all_callbacks():
/home/letsgrillbananas/wsFreedomStudio/embedded-software/freedom-metal/metal/clock.h:50

/*!
 * @brief Call all callbacks in the linked list, if any are registered
 */
__inline__ void
_metal_clock_call_all_callbacks(const metal_clock_callback *const list) {
20013b66:	7179                	addi	sp,sp,-48
20013b68:	d606                	sw	ra,44(sp)
20013b6a:	d422                	sw	s0,40(sp)
20013b6c:	1800                	addi	s0,sp,48
20013b6e:	fca42e23          	sw	a0,-36(s0)
/home/letsgrillbananas/wsFreedomStudio/embedded-software/freedom-metal/metal/clock.h:51
    const metal_clock_callback *current = list;
20013b72:	fdc42783          	lw	a5,-36(s0)
20013b76:	fef42623          	sw	a5,-20(s0)
/home/letsgrillbananas/wsFreedomStudio/embedded-software/freedom-metal/metal/clock.h:52
    while (current) {
20013b7a:	a831                	j	20013b96 <_metal_clock_call_all_callbacks+0x30>
/home/letsgrillbananas/wsFreedomStudio/embedded-software/freedom-metal/metal/clock.h:53
        current->callback(current->priv);
20013b7c:	fec42783          	lw	a5,-20(s0)
20013b80:	4398                	lw	a4,0(a5)
20013b82:	fec42783          	lw	a5,-20(s0)
20013b86:	43dc                	lw	a5,4(a5)
20013b88:	853e                	mv	a0,a5
20013b8a:	9702                	jalr	a4
/home/letsgrillbananas/wsFreedomStudio/embedded-software/freedom-metal/metal/clock.h:54
        current = current->_next;
20013b8c:	fec42783          	lw	a5,-20(s0)
20013b90:	479c                	lw	a5,8(a5)
20013b92:	fef42623          	sw	a5,-20(s0)
/home/letsgrillbananas/wsFreedomStudio/embedded-software/freedom-metal/metal/clock.h:52
    while (current) {
20013b96:	fec42783          	lw	a5,-20(s0)
20013b9a:	f3ed                	bnez	a5,20013b7c <_metal_clock_call_all_callbacks+0x16>
/home/letsgrillbananas/wsFreedomStudio/embedded-software/freedom-metal/metal/clock.h:56
    }
}
20013b9c:	0001                	nop
20013b9e:	50b2                	lw	ra,44(sp)
20013ba0:	5422                	lw	s0,40(sp)
20013ba2:	6145                	addi	sp,sp,48
20013ba4:	8082                	ret

20013ba6 <metal_clock_get_rate_hz>:
metal_clock_get_rate_hz():
/home/letsgrillbananas/wsFreedomStudio/embedded-software/freedom-metal/metal/clock.h:110
 * @brief Returns the current rate of the given clock
 *
 * @param clk The handle for the clock
 * @return The current rate of the clock in Hz
 */
__inline__ long metal_clock_get_rate_hz(const struct metal_clock *clk) {
20013ba6:	1101                	addi	sp,sp,-32
20013ba8:	ce06                	sw	ra,28(sp)
20013baa:	cc22                	sw	s0,24(sp)
20013bac:	1000                	addi	s0,sp,32
20013bae:	fea42623          	sw	a0,-20(s0)
/home/letsgrillbananas/wsFreedomStudio/embedded-software/freedom-metal/metal/clock.h:111
    return clk->vtable->get_rate_hz(clk);
20013bb2:	fec42783          	lw	a5,-20(s0)
20013bb6:	439c                	lw	a5,0(a5)
20013bb8:	439c                	lw	a5,0(a5)
20013bba:	fec42503          	lw	a0,-20(s0)
20013bbe:	9782                	jalr	a5
20013bc0:	87aa                	mv	a5,a0
/home/letsgrillbananas/wsFreedomStudio/embedded-software/freedom-metal/metal/clock.h:112
}
20013bc2:	853e                	mv	a0,a5
20013bc4:	40f2                	lw	ra,28(sp)
20013bc6:	4462                	lw	s0,24(sp)
20013bc8:	6105                	addi	sp,sp,32
20013bca:	8082                	ret

20013bcc <metal_clock_set_rate_hz>:
metal_clock_set_rate_hz():
/home/letsgrillbananas/wsFreedomStudio/embedded-software/freedom-metal/metal/clock.h:128
 * could be anything!
 *
 * Prior to and after the rate change of the clock, this will call the
 * registered pre- and post-rate change callbacks.
 */
__inline__ long metal_clock_set_rate_hz(struct metal_clock *clk, long hz) {
20013bcc:	7179                	addi	sp,sp,-48
20013bce:	d606                	sw	ra,44(sp)
20013bd0:	d422                	sw	s0,40(sp)
20013bd2:	1800                	addi	s0,sp,48
20013bd4:	fca42e23          	sw	a0,-36(s0)
20013bd8:	fcb42c23          	sw	a1,-40(s0)
/home/letsgrillbananas/wsFreedomStudio/embedded-software/freedom-metal/metal/clock.h:129
    _metal_clock_call_all_callbacks(clk->_pre_rate_change_callback);
20013bdc:	fdc42783          	lw	a5,-36(s0)
20013be0:	43dc                	lw	a5,4(a5)
20013be2:	853e                	mv	a0,a5
20013be4:	3749                	jal	20013b66 <_metal_clock_call_all_callbacks>
/home/letsgrillbananas/wsFreedomStudio/embedded-software/freedom-metal/metal/clock.h:131

    long out = clk->vtable->set_rate_hz(clk, hz);
20013be6:	fdc42783          	lw	a5,-36(s0)
20013bea:	439c                	lw	a5,0(a5)
20013bec:	43dc                	lw	a5,4(a5)
20013bee:	fd842583          	lw	a1,-40(s0)
20013bf2:	fdc42503          	lw	a0,-36(s0)
20013bf6:	9782                	jalr	a5
20013bf8:	fea42623          	sw	a0,-20(s0)
/home/letsgrillbananas/wsFreedomStudio/embedded-software/freedom-metal/metal/clock.h:133

    _metal_clock_call_all_callbacks(clk->_post_rate_change_callback);
20013bfc:	fdc42783          	lw	a5,-36(s0)
20013c00:	479c                	lw	a5,8(a5)
20013c02:	853e                	mv	a0,a5
20013c04:	378d                	jal	20013b66 <_metal_clock_call_all_callbacks>
/home/letsgrillbananas/wsFreedomStudio/embedded-software/freedom-metal/metal/clock.h:135

    return out;
20013c06:	fec42783          	lw	a5,-20(s0)
/home/letsgrillbananas/wsFreedomStudio/embedded-software/freedom-metal/metal/clock.h:136
}
20013c0a:	853e                	mv	a0,a5
20013c0c:	50b2                	lw	ra,44(sp)
20013c0e:	5422                	lw	s0,40(sp)
20013c10:	6145                	addi	sp,sp,48
20013c12:	8082                	ret

20013c14 <metal_cpu_interrupt_controller>:
metal_cpu_interrupt_controller():
/home/letsgrillbananas/wsFreedomStudio/embedded-software/freedom-metal/metal/cpu.h:224
 *
 * @param cpu The CPU device handle
 * @return The handle for the CPU interrupt controller
 */
__inline__ struct metal_interrupt *
metal_cpu_interrupt_controller(struct metal_cpu *cpu) {
20013c14:	1101                	addi	sp,sp,-32
20013c16:	ce06                	sw	ra,28(sp)
20013c18:	cc22                	sw	s0,24(sp)
20013c1a:	1000                	addi	s0,sp,32
20013c1c:	fea42623          	sw	a0,-20(s0)
/home/letsgrillbananas/wsFreedomStudio/embedded-software/freedom-metal/metal/cpu.h:225
    return cpu->vtable->controller_interrupt(cpu);
20013c20:	fec42783          	lw	a5,-20(s0)
20013c24:	439c                	lw	a5,0(a5)
20013c26:	57dc                	lw	a5,44(a5)
20013c28:	fec42503          	lw	a0,-20(s0)
20013c2c:	9782                	jalr	a5
20013c2e:	87aa                	mv	a5,a0
/home/letsgrillbananas/wsFreedomStudio/embedded-software/freedom-metal/metal/cpu.h:226
}
20013c30:	853e                	mv	a0,a5
20013c32:	40f2                	lw	ra,28(sp)
20013c34:	4462                	lw	s0,24(sp)
20013c36:	6105                	addi	sp,sp,32
20013c38:	8082                	ret

20013c3a <metal_cpu_get>:
metal_cpu_get():
/home/letsgrillbananas/wsFreedomStudio/embedded-software/freedom-metal/src/cpu.c:7
/* SPDX-License-Identifier: Apache-2.0 */

#include <metal/cpu.h>
#include <metal/machine.h>

struct metal_cpu *metal_cpu_get(unsigned int hartid) {
20013c3a:	1101                	addi	sp,sp,-32
20013c3c:	ce22                	sw	s0,28(sp)
20013c3e:	1000                	addi	s0,sp,32
20013c40:	fea42623          	sw	a0,-20(s0)
/home/letsgrillbananas/wsFreedomStudio/embedded-software/freedom-metal/src/cpu.c:8
    if (hartid < __METAL_DT_MAX_HARTS) {
20013c44:	fec42783          	lw	a5,-20(s0)
20013c48:	eb99                	bnez	a5,20013c5e <metal_cpu_get+0x24>
/home/letsgrillbananas/wsFreedomStudio/embedded-software/freedom-metal/src/cpu.c:9
        return (struct metal_cpu *)__metal_cpu_table[hartid];
20013c4a:	800007b7          	lui	a5,0x80000
20013c4e:	fec42703          	lw	a4,-20(s0)
20013c52:	070a                	slli	a4,a4,0x2
20013c54:	48c78793          	addi	a5,a5,1164 # 8000048c <__global_pointer$+0xfffff804>
20013c58:	97ba                	add	a5,a5,a4
20013c5a:	439c                	lw	a5,0(a5)
20013c5c:	a011                	j	20013c60 <metal_cpu_get+0x26>
/home/letsgrillbananas/wsFreedomStudio/embedded-software/freedom-metal/src/cpu.c:11
    }
    return NULL;
20013c5e:	4781                	li	a5,0
/home/letsgrillbananas/wsFreedomStudio/embedded-software/freedom-metal/src/cpu.c:12
}
20013c60:	853e                	mv	a0,a5
20013c62:	4472                	lw	s0,28(sp)
20013c64:	6105                	addi	sp,sp,32
20013c66:	8082                	ret

20013c68 <metal_cpu_get_current_hartid>:
metal_cpu_get_current_hartid():
/home/letsgrillbananas/wsFreedomStudio/embedded-software/freedom-metal/src/cpu.c:14

int metal_cpu_get_current_hartid() {
20013c68:	1101                	addi	sp,sp,-32
20013c6a:	ce22                	sw	s0,28(sp)
20013c6c:	1000                	addi	s0,sp,32
/home/letsgrillbananas/wsFreedomStudio/embedded-software/freedom-metal/src/cpu.c:17
#ifdef __riscv
    int mhartid;
    __asm__ volatile("csrr %0, mhartid" : "=r"(mhartid));
20013c6e:	f14027f3          	csrr	a5,mhartid
20013c72:	fef42623          	sw	a5,-20(s0)
/home/letsgrillbananas/wsFreedomStudio/embedded-software/freedom-metal/src/cpu.c:18
    return mhartid;
20013c76:	fec42783          	lw	a5,-20(s0)
/home/letsgrillbananas/wsFreedomStudio/embedded-software/freedom-metal/src/cpu.c:20
#endif
}
20013c7a:	853e                	mv	a0,a5
20013c7c:	4472                	lw	s0,28(sp)
20013c7e:	6105                	addi	sp,sp,32
20013c80:	8082                	ret

20013c82 <metal_shutdown>:
metal_shutdown():
/home/letsgrillbananas/wsFreedomStudio/embedded-software/freedom-metal/src/shutdown.c:17
    __metal_shutdown_exit(__METAL_DT_SHUTDOWN_HANDLE, code);
}
#else
#pragma message(                                                               \
    "There is no defined shutdown mechanism, metal_shutdown() will spin.")
void metal_shutdown(int code) {
20013c82:	1101                	addi	sp,sp,-32
20013c84:	ce22                	sw	s0,28(sp)
20013c86:	1000                	addi	s0,sp,32
20013c88:	fea42623          	sw	a0,-20(s0)
/home/letsgrillbananas/wsFreedomStudio/embedded-software/freedom-metal/src/shutdown.c:19 (discriminator 1)
    while (1) {
        __asm__ volatile("nop");
20013c8c:	0001                	nop
20013c8e:	bffd                	j	20013c8c <metal_shutdown+0xa>
	...

20013d00 <__metal_vector_table>:
IRQ_0():
/home/letsgrillbananas/wsFreedomStudio/embedded-software/freedom-metal/src/vector.S:96
#endif
.option norvc
.global __metal_vector_table
__metal_vector_table:
IRQ_0:
        j metal_interrupt_vector_handler
20013d00:	dabfd06f          	j	20011aaa <metal_interrupt_vector_handler>

20013d04 <IRQ_1>:
IRQ_1():
/home/letsgrillbananas/wsFreedomStudio/embedded-software/freedom-metal/src/vector.S:98
IRQ_1:
        j metal_interrupt_vector_handler
20013d04:	da7fd06f          	j	20011aaa <metal_interrupt_vector_handler>

20013d08 <IRQ_2>:
IRQ_2():
/home/letsgrillbananas/wsFreedomStudio/embedded-software/freedom-metal/src/vector.S:100
IRQ_2:
        j metal_interrupt_vector_handler
20013d08:	da3fd06f          	j	20011aaa <metal_interrupt_vector_handler>

20013d0c <IRQ_3>:
IRQ_3():
/home/letsgrillbananas/wsFreedomStudio/embedded-software/freedom-metal/src/vector.S:102
IRQ_3:
        j metal_software_interrupt_vector_handler
20013d0c:	dcdfd06f          	j	20011ad8 <metal_software_interrupt_vector_handler>

20013d10 <IRQ_4>:
IRQ_4():
/home/letsgrillbananas/wsFreedomStudio/embedded-software/freedom-metal/src/vector.S:104
IRQ_4:
        j metal_interrupt_vector_handler
20013d10:	d9bfd06f          	j	20011aaa <metal_interrupt_vector_handler>

20013d14 <IRQ_5>:
IRQ_5():
/home/letsgrillbananas/wsFreedomStudio/embedded-software/freedom-metal/src/vector.S:106
IRQ_5:
        j metal_interrupt_vector_handler
20013d14:	d97fd06f          	j	20011aaa <metal_interrupt_vector_handler>

20013d18 <IRQ_6>:
IRQ_6():
/home/letsgrillbananas/wsFreedomStudio/embedded-software/freedom-metal/src/vector.S:108
IRQ_6:
        j metal_interrupt_vector_handler
20013d18:	d93fd06f          	j	20011aaa <metal_interrupt_vector_handler>

20013d1c <IRQ_7>:
IRQ_7():
/home/letsgrillbananas/wsFreedomStudio/embedded-software/freedom-metal/src/vector.S:110
IRQ_7:
        j metal_timer_interrupt_vector_handler
20013d1c:	eb7fd06f          	j	20011bd2 <metal_timer_interrupt_vector_handler>

20013d20 <IRQ_8>:
IRQ_8():
/home/letsgrillbananas/wsFreedomStudio/embedded-software/freedom-metal/src/vector.S:112
IRQ_8:
        j metal_interrupt_vector_handler
20013d20:	d8bfd06f          	j	20011aaa <metal_interrupt_vector_handler>

20013d24 <IRQ_9>:
IRQ_9():
/home/letsgrillbananas/wsFreedomStudio/embedded-software/freedom-metal/src/vector.S:114
IRQ_9:
        j metal_interrupt_vector_handler
20013d24:	d87fd06f          	j	20011aaa <metal_interrupt_vector_handler>

20013d28 <IRQ_10>:
IRQ_10():
/home/letsgrillbananas/wsFreedomStudio/embedded-software/freedom-metal/src/vector.S:116
IRQ_10:
        j metal_interrupt_vector_handler
20013d28:	d83fd06f          	j	20011aaa <metal_interrupt_vector_handler>

20013d2c <IRQ_11>:
IRQ_11():
/home/letsgrillbananas/wsFreedomStudio/embedded-software/freedom-metal/src/vector.S:118
IRQ_11:
        j metal_interrupt_vector_handler
20013d2c:	d7ffd06f          	j	20011aaa <metal_interrupt_vector_handler>

20013d30 <IRQ_12>:
IRQ_12():
/home/letsgrillbananas/wsFreedomStudio/embedded-software/freedom-metal/src/vector.S:120
IRQ_12:
        j metal_interrupt_vector_handler
20013d30:	d7bfd06f          	j	20011aaa <metal_interrupt_vector_handler>

20013d34 <IRQ_13>:
IRQ_13():
/home/letsgrillbananas/wsFreedomStudio/embedded-software/freedom-metal/src/vector.S:122
IRQ_13:
        j metal_interrupt_vector_handler
20013d34:	d77fd06f          	j	20011aaa <metal_interrupt_vector_handler>

20013d38 <IRQ_14>:
IRQ_14():
/home/letsgrillbananas/wsFreedomStudio/embedded-software/freedom-metal/src/vector.S:124
IRQ_14:
        j metal_interrupt_vector_handler
20013d38:	d73fd06f          	j	20011aaa <metal_interrupt_vector_handler>

20013d3c <IRQ_15>:
IRQ_15():
/home/letsgrillbananas/wsFreedomStudio/embedded-software/freedom-metal/src/vector.S:126
IRQ_15:
        j metal_interrupt_vector_handler
20013d3c:	d6ffd06f          	j	20011aaa <metal_interrupt_vector_handler>

20013d40 <IRQ_LC0>:
IRQ_LC0():
/home/letsgrillbananas/wsFreedomStudio/embedded-software/freedom-metal/src/vector.S:128
IRQ_LC0:
        j metal_lc0_interrupt_vector_handler
20013d40:	9b6fe06f          	j	20011ef6 <metal_lc0_interrupt_vector_handler>

20013d44 <IRQ_LC1>:
IRQ_LC1():
/home/letsgrillbananas/wsFreedomStudio/embedded-software/freedom-metal/src/vector.S:130
IRQ_LC1:
        j metal_lc1_interrupt_vector_handler
20013d44:	a46fe06f          	j	20011f8a <metal_lc1_interrupt_vector_handler>

20013d48 <IRQ_LC2>:
IRQ_LC2():
/home/letsgrillbananas/wsFreedomStudio/embedded-software/freedom-metal/src/vector.S:132
IRQ_LC2:
        j metal_lc2_interrupt_vector_handler
20013d48:	ad8fe06f          	j	20012020 <metal_lc2_interrupt_vector_handler>

20013d4c <IRQ_LC3>:
IRQ_LC3():
/home/letsgrillbananas/wsFreedomStudio/embedded-software/freedom-metal/src/vector.S:134
IRQ_LC3:
        j metal_lc3_interrupt_vector_handler
20013d4c:	b6afe06f          	j	200120b6 <metal_lc3_interrupt_vector_handler>

20013d50 <IRQ_LC4>:
IRQ_LC4():
/home/letsgrillbananas/wsFreedomStudio/embedded-software/freedom-metal/src/vector.S:136
IRQ_LC4:
        j metal_lc4_interrupt_vector_handler
20013d50:	bfcfe06f          	j	2001214c <metal_lc4_interrupt_vector_handler>

20013d54 <IRQ_LC5>:
IRQ_LC5():
/home/letsgrillbananas/wsFreedomStudio/embedded-software/freedom-metal/src/vector.S:138
IRQ_LC5:
        j metal_lc5_interrupt_vector_handler
20013d54:	c8efe06f          	j	200121e2 <metal_lc5_interrupt_vector_handler>

20013d58 <IRQ_LC6>:
IRQ_LC6():
/home/letsgrillbananas/wsFreedomStudio/embedded-software/freedom-metal/src/vector.S:140
IRQ_LC6:
        j metal_lc6_interrupt_vector_handler
20013d58:	d20fe06f          	j	20012278 <metal_lc6_interrupt_vector_handler>

20013d5c <IRQ_LC7>:
IRQ_LC7():
/home/letsgrillbananas/wsFreedomStudio/embedded-software/freedom-metal/src/vector.S:142
IRQ_LC7:
        j metal_lc7_interrupt_vector_handler
20013d5c:	db2fe06f          	j	2001230e <metal_lc7_interrupt_vector_handler>

20013d60 <IRQ_LC8>:
IRQ_LC8():
/home/letsgrillbananas/wsFreedomStudio/embedded-software/freedom-metal/src/vector.S:144
IRQ_LC8:
        j metal_lc8_interrupt_vector_handler
20013d60:	e44fe06f          	j	200123a4 <metal_lc8_interrupt_vector_handler>

20013d64 <IRQ_LC9>:
IRQ_LC9():
/home/letsgrillbananas/wsFreedomStudio/embedded-software/freedom-metal/src/vector.S:146
IRQ_LC9:
        j metal_lc9_interrupt_vector_handler
20013d64:	ed6fe06f          	j	2001243a <metal_lc9_interrupt_vector_handler>

20013d68 <IRQ_LC10>:
IRQ_LC10():
/home/letsgrillbananas/wsFreedomStudio/embedded-software/freedom-metal/src/vector.S:148
IRQ_LC10:
        j metal_lc10_interrupt_vector_handler
20013d68:	f68fe06f          	j	200124d0 <metal_lc10_interrupt_vector_handler>

20013d6c <IRQ_LC11>:
IRQ_LC11():
/home/letsgrillbananas/wsFreedomStudio/embedded-software/freedom-metal/src/vector.S:150
IRQ_LC11:
        j metal_lc11_interrupt_vector_handler
20013d6c:	ffafe06f          	j	20012566 <metal_lc11_interrupt_vector_handler>

20013d70 <IRQ_LC12>:
IRQ_LC12():
/home/letsgrillbananas/wsFreedomStudio/embedded-software/freedom-metal/src/vector.S:152
IRQ_LC12:
        j metal_lc12_interrupt_vector_handler
20013d70:	88dfe06f          	j	200125fc <metal_lc12_interrupt_vector_handler>

20013d74 <IRQ_LC13>:
IRQ_LC13():
/home/letsgrillbananas/wsFreedomStudio/embedded-software/freedom-metal/src/vector.S:154
IRQ_LC13:
        j metal_lc13_interrupt_vector_handler
20013d74:	91ffe06f          	j	20012692 <metal_lc13_interrupt_vector_handler>

20013d78 <IRQ_LC14>:
IRQ_LC14():
/home/letsgrillbananas/wsFreedomStudio/embedded-software/freedom-metal/src/vector.S:156
IRQ_LC14:
        j metal_lc14_interrupt_vector_handler
20013d78:	9b1fe06f          	j	20012728 <metal_lc14_interrupt_vector_handler>

20013d7c <IRQ_LC15>:
IRQ_LC15():
/home/letsgrillbananas/wsFreedomStudio/embedded-software/freedom-metal/src/vector.S:158
IRQ_LC15:
        j metal_lc15_interrupt_vector_handler
20013d7c:	a43fe06f          	j	200127be <metal_lc15_interrupt_vector_handler>

20013d80 <__metal_driver_fixed_clock_rate>:
__metal_driver_fixed_clock_rate():
/home/letsgrillbananas/wsFreedomStudio/embedded-software/bsp/build/debug/./metal/machine.h:208
{
20013d80:	1101                	addi	sp,sp,-32
20013d82:	ce22                	sw	s0,28(sp)
20013d84:	1000                	addi	s0,sp,32
20013d86:	fea42623          	sw	a0,-20(s0)
/home/letsgrillbananas/wsFreedomStudio/embedded-software/bsp/build/debug/./metal/machine.h:209
	if ((uintptr_t)clock == (uintptr_t)&__metal_dt_clock_0) {
20013d8a:	fec42703          	lw	a4,-20(s0)
20013d8e:	800007b7          	lui	a5,0x80000
20013d92:	06078793          	addi	a5,a5,96 # 80000060 <__global_pointer$+0xfffff3d8>
20013d96:	00f71763          	bne	a4,a5,20013da4 <__metal_driver_fixed_clock_rate+0x24>
/home/letsgrillbananas/wsFreedomStudio/embedded-software/bsp/build/debug/./metal/machine.h:210
		return METAL_FIXED_CLOCK_0_CLOCK_FREQUENCY;
20013d9a:	00f427b7          	lui	a5,0xf42
20013d9e:	40078793          	addi	a5,a5,1024 # f42400 <__heap_size+0xf41c00>
20013da2:	a099                	j	20013de8 <__metal_driver_fixed_clock_rate+0x68>
/home/letsgrillbananas/wsFreedomStudio/embedded-software/bsp/build/debug/./metal/machine.h:212
	else if ((uintptr_t)clock == (uintptr_t)&__metal_dt_clock_2) {
20013da4:	fec42703          	lw	a4,-20(s0)
20013da8:	800007b7          	lui	a5,0x80000
20013dac:	06c78793          	addi	a5,a5,108 # 8000006c <__global_pointer$+0xfffff3e4>
20013db0:	00f71763          	bne	a4,a5,20013dbe <__metal_driver_fixed_clock_rate+0x3e>
/home/letsgrillbananas/wsFreedomStudio/embedded-software/bsp/build/debug/./metal/machine.h:213
		return METAL_FIXED_CLOCK_2_CLOCK_FREQUENCY;
20013db4:	044aa7b7          	lui	a5,0x44aa
20013db8:	20078793          	addi	a5,a5,512 # 44aa200 <__heap_size+0x44a9a00>
20013dbc:	a035                	j	20013de8 <__metal_driver_fixed_clock_rate+0x68>
/home/letsgrillbananas/wsFreedomStudio/embedded-software/bsp/build/debug/./metal/machine.h:215
	else if ((uintptr_t)clock == (uintptr_t)&__metal_dt_clock_5) {
20013dbe:	fec42703          	lw	a4,-20(s0)
20013dc2:	800007b7          	lui	a5,0x80000
20013dc6:	07878793          	addi	a5,a5,120 # 80000078 <__global_pointer$+0xfffff3f0>
20013dca:	00f71463          	bne	a4,a5,20013dd2 <__metal_driver_fixed_clock_rate+0x52>
/home/letsgrillbananas/wsFreedomStudio/embedded-software/bsp/build/debug/./metal/machine.h:216
		return METAL_FIXED_CLOCK_5_CLOCK_FREQUENCY;
20013dce:	67a1                	lui	a5,0x8
20013dd0:	a821                	j	20013de8 <__metal_driver_fixed_clock_rate+0x68>
/home/letsgrillbananas/wsFreedomStudio/embedded-software/bsp/build/debug/./metal/machine.h:218
	else if ((uintptr_t)clock == (uintptr_t)&__metal_dt_clock_6) {
20013dd2:	fec42703          	lw	a4,-20(s0)
20013dd6:	800007b7          	lui	a5,0x80000
20013dda:	08478793          	addi	a5,a5,132 # 80000084 <__global_pointer$+0xfffff3fc>
20013dde:	00f71463          	bne	a4,a5,20013de6 <__metal_driver_fixed_clock_rate+0x66>
/home/letsgrillbananas/wsFreedomStudio/embedded-software/bsp/build/debug/./metal/machine.h:219
		return METAL_FIXED_CLOCK_6_CLOCK_FREQUENCY;
20013de2:	67a1                	lui	a5,0x8
20013de4:	a011                	j	20013de8 <__metal_driver_fixed_clock_rate+0x68>
/home/letsgrillbananas/wsFreedomStudio/embedded-software/bsp/build/debug/./metal/machine.h:222
		return 0;
20013de6:	4781                	li	a5,0
/home/letsgrillbananas/wsFreedomStudio/embedded-software/bsp/build/debug/./metal/machine.h:224
}
20013de8:	853e                	mv	a0,a5
20013dea:	4472                	lw	s0,28(sp)
20013dec:	6105                	addi	sp,sp,32
20013dee:	8082                	ret

20013df0 <__metal_driver_fixed_clock_get_rate_hz>:
__metal_driver_fixed_clock_get_rate_hz():
/home/letsgrillbananas/wsFreedomStudio/embedded-software/freedom-metal/src/drivers/fixed-clock.c:12

#include <metal/drivers/fixed-clock.h>
#include <metal/machine.h>
#include <stddef.h>

long __metal_driver_fixed_clock_get_rate_hz(const struct metal_clock *gclk) {
20013df0:	1101                	addi	sp,sp,-32
20013df2:	ce06                	sw	ra,28(sp)
20013df4:	cc22                	sw	s0,24(sp)
20013df6:	1000                	addi	s0,sp,32
20013df8:	fea42623          	sw	a0,-20(s0)
/home/letsgrillbananas/wsFreedomStudio/embedded-software/freedom-metal/src/drivers/fixed-clock.c:13
    return __metal_driver_fixed_clock_rate(gclk);
20013dfc:	fec42503          	lw	a0,-20(s0)
20013e00:	3741                	jal	20013d80 <__metal_driver_fixed_clock_rate>
20013e02:	87aa                	mv	a5,a0
/home/letsgrillbananas/wsFreedomStudio/embedded-software/freedom-metal/src/drivers/fixed-clock.c:14
}
20013e04:	853e                	mv	a0,a5
20013e06:	40f2                	lw	ra,28(sp)
20013e08:	4462                	lw	s0,24(sp)
20013e0a:	6105                	addi	sp,sp,32
20013e0c:	8082                	ret

20013e0e <__metal_driver_fixed_clock_set_rate_hz>:
__metal_driver_fixed_clock_set_rate_hz():
/home/letsgrillbananas/wsFreedomStudio/embedded-software/freedom-metal/src/drivers/fixed-clock.c:17

long __metal_driver_fixed_clock_set_rate_hz(struct metal_clock *gclk,
                                            long target_hz) {
20013e0e:	1101                	addi	sp,sp,-32
20013e10:	ce06                	sw	ra,28(sp)
20013e12:	cc22                	sw	s0,24(sp)
20013e14:	1000                	addi	s0,sp,32
20013e16:	fea42623          	sw	a0,-20(s0)
20013e1a:	feb42423          	sw	a1,-24(s0)
/home/letsgrillbananas/wsFreedomStudio/embedded-software/freedom-metal/src/drivers/fixed-clock.c:18
    return __metal_driver_fixed_clock_get_rate_hz(gclk);
20013e1e:	fec42503          	lw	a0,-20(s0)
20013e22:	37f9                	jal	20013df0 <__metal_driver_fixed_clock_get_rate_hz>
20013e24:	87aa                	mv	a5,a0
/home/letsgrillbananas/wsFreedomStudio/embedded-software/freedom-metal/src/drivers/fixed-clock.c:19
}
20013e26:	853e                	mv	a0,a5
20013e28:	40f2                	lw	ra,28(sp)
20013e2a:	4462                	lw	s0,24(sp)
20013e2c:	6105                	addi	sp,sp,32
20013e2e:	8082                	ret

20013e30 <_exit>:
_exit():
/home/letsgrillbananas/wsFreedomStudio/embedded-software/freedom-metal/gloss/sys_exit.c:3
#include <metal/shutdown.h>

void _exit(int exit_status) {
20013e30:	1101                	addi	sp,sp,-32
20013e32:	ce06                	sw	ra,28(sp)
20013e34:	cc22                	sw	s0,24(sp)
20013e36:	1000                	addi	s0,sp,32
20013e38:	fea42623          	sw	a0,-20(s0)
/home/letsgrillbananas/wsFreedomStudio/embedded-software/freedom-metal/gloss/sys_exit.c:4
    metal_shutdown(exit_status);
20013e3c:	fec42503          	lw	a0,-20(s0)
20013e40:	3589                	jal	20013c82 <metal_shutdown>
